(lp0
(lp1
(lp2
I8
aF5.820276260375977
aF4.281128406524658
aF4.013880729675293
aF4.6426873207092285
aI8
aI8
aI8
aa(lp3
I0
aI0
aI0
aaI-1
a(lp4
I8
aF5.820270538330078
aF4.281124591827393
aF4.013876914978027
aF4.642683506011963
aI8
aI8
aI8
aaa(lp5
(lp6
I8
aF5.820269584655762
aF4.281124114990234
aF4.013876438140869
aF4.6426825523376465
aI8
aI8
aI8
aa(lp7
F-0.0
aF-0.0
aF0.4899875223636627
aaI-1
a(lp8
I8
aF5.86067533493042
aF4.308988571166992
aF4.038802146911621
aF4.670010089874268
aI8
aI8
aI8
aaa(lp9
(lp10
I8
aF5.876277446746826
aF4.3189873695373535
aF4.047224044799805
aF4.678557395935059
aI8
aI8
aI8
aa(lp11
F-0.0
aF-0.0
aF0.587678849697113
aaI-1
a(lp12
I8
aF5.96209192276001
aF4.380800247192383
aF4.104334831237793
aF4.743560314178467
aI8
aI8
aI8
aaa(lp13
(lp14
I8
aF5.905889987945557
aF4.384561538696289
aF4.137431621551514
aF4.819380283355713
aI8
aI8
aI8
aa(lp15
F-0.0
aF-0.0
aF0.587678849697113
aaI-1
a(lp16
I8
aF4.44832706451416
aF4.1861701011657715
aF4.861596584320068
aI8
aI8
aI8
aI8
aaa(lp17
(lp18
F5.356200695037842
aF4.290386199951172
aF4.285576820373535
aF5.335256576538086
aI8
aI8
aI8
aI8
aa(lp19
F-0.0
aF-0.0
aF0.587678849697113
aaI-1
a(lp20
F4.309108734130859
aF4.461208343505859
aF5.817667484283447
aI8
aI8
aI8
aI8
aI8
aaa(lp21
(lp22
F4.320643424987793
aF4.843098163604736
aI8
aI8
aI8
aI8
aI8
aI8
aa(lp23
F-0.0
aF-0.0
aF0.587678849697113
aaI-1
a(lp24
F4.477283954620361
aF5.122437953948975
aI8
aI8
aI8
aI8
aI8
aI8
aaa(lp25
(lp26
F4.60737419128418
aF5.246548652648926
aI8
aI8
aI8
aI8
aI8
aI8
aa(lp27
F-0.0
aF-0.0
aF0.587678849697113
aaI-1
a(lp28
F4.767761707305908
aF5.422014236450195
aI8
aI8
aI8
aI8
aI8
aI8
aaa(lp29
(lp30
F4.889004707336426
aF5.556239604949951
aI8
aI8
aI8
aI8
aI8
aI8
aa(lp31
F-0.31632113456726074
aF-0.0
aF-0.0
aaI-1
a(lp32
F5.133387088775635
aF5.836637020111084
aI8
aI8
aI8
aI8
aF0.2609018385410309
aI8
aaa(lp33
(lp34
F5.265171051025391
aF5.985647678375244
aI8
aI8
aI8
aI8
aI8
aI8
aa(lp35
F-0.29463693499565125
aF-0.0
aF-0.0
aaI-1
a(lp36
F5.546853542327881
aI8
aI8
aI8
aI8
aI8
aI8
aF0.23500008881092072
aaa(lp37
(lp38
F5.756461143493652
aI8
aI8
aI8
aI8
aI8
aI8
aI8
aa(lp39
F-0.29463693499565125
aF-0.0
aF-0.0
aaI-1
a(lp40
F5.909862041473389
aI8
aI8
aI8
aI8
aI8
aF0.26090186834335327
aI8
aaa(lp41
(lp42
F5.983642101287842
aI8
aI8
aI8
aI8
aI8
aI8
aI8
aa(lp43
F0.26209455728530884
aF-0.0
aF-0.0
aaI-1
a(lp44
I8
aI8
aI8
aI8
aI8
aI8
aI8
aI8
aaa(lp45
(lp46
F5.960870265960693
aI8
aI8
aI8
aI8
aI8
aI8
aI8
aa(lp47
F0.26209455728530884
aF-0.0
aF-0.0
aaI-1
a(lp48
F5.877268314361572
aI8
aI8
aI8
aI8
aI8
aI8
aI8
aaa(lp49
(lp50
F5.83290433883667
aI8
aI8
aI8
aI8
aI8
aI8
aI8
aa(lp51
F0.2946690618991852
aF-0.0
aF-0.0
aaI-1
a(lp52
F5.58406925201416
aI8
aI8
aI8
aI8
aI8
aI8
aI8
aaa(lp53
(lp54
F5.509727478027344
aI8
aI8
aI8
aI8
aI8
aI8
aI8
aa(lp55
F0.30549511313438416
aF-0.0
aF-0.0
aaI-1
a(lp56
F5.1852288246154785
aI8
aI8
aI8
aI8
aI8
aI8
aI8
aaa(lp57
(lp58
F5.098465919494629
aF5.912923336029053
aI8
aI8
aI8
aI8
aI8
aI8
aa(lp59
F0.30549511313438416
aF-0.0
aF-0.0
aaI-1
a(lp60
F0.23500008881092072
aF5.504120826721191
aI8
aI8
aI8
aI8
aI8
aI8
aaa(lp61
(lp62
F0.23500008881092072
aF5.398379325866699
aI8
aI8
aI8
aI8
aI8
aI8
aa(lp63
F0.30549511313438416
aF-0.0
aF-0.0
aaI-1
a(lp64
F0.23500008881092072
aF4.963915824890137
aI8
aI8
aI8
aI8
aI8
aI8
aaa(lp65
(lp66
F0.23500008881092072
aF4.851088523864746
aI8
aI8
aI8
aI8
aI8
aI8
aa(lp67
F0.30549511313438416
aF-0.0
aF-0.0
aaI-1
a(lp68
F0.23500008881092072
aF4.509881973266602
aI8
aI8
aI8
aI8
aI8
aI8
aaa(lp69
(lp70
F0.23500008881092072
aF4.395677089691162
aI8
aI8
aI8
aI8
aI8
aI8
aa(lp71
F0.30549511313438416
aF-0.0
aF-0.0
aaI1
a(lp72
F0.23500008881092072
aF3.9224021434783936
aI8
aI8
aI8
aI8
aI8
aI8
aaa(lp73
(lp74
F0.23500008881092072
aF3.8023581504821777
aI8
aI8
aI8
aI8
aI8
aI8
aa(lp75
F0.30549511313438416
aF-0.0
aF-0.0
aaI1
a(lp76
F0.23500008881092072
aF3.3142826557159424
aF5.293829917907715
aI8
aI8
aI8
aI8
aI8
aaa(lp77
(lp78
F0.23500008881092072
aF3.1913928985595703
aF5.102654933929443
aI8
aI8
aI8
aI8
aI8
aa(lp79
F0.30549511313438416
aF-0.0
aF-0.0
aaI-1
a(lp80
F0.23500008881092072
aF0.2609018385410309
aF4.33213996887207
aI8
aI8
aI8
aI8
aI8
aaa(lp81
(lp82
F0.23500008881092072
aF0.2609018385410309
aF4.133488178253174
aI8
aI8
aI8
aI8
aI8
aa(lp83
F0.30549511313438416
aF-0.0
aF-0.0
aaI-1
a(lp84
F0.23500008881092072
aF0.2609018385410309
aF3.330373764038086
aI8
aI8
aI8
aI8
aI8
aaa(lp85
(lp86
F0.23500008881092072
aF0.2609018385410309
aF3.1243276596069336
aI8
aI8
aI8
aI8
aI8
aa(lp87
F-0.9457412958145142
aF-0.0
aF-0.0
aaI-1
a(lp88
F1.5149446725845337
aF1.7984764575958252
aF2.9244539737701416
aI8
aI8
aF0.300494521856308
aI8
aI8
aaa(lp89
(lp90
F1.5475271940231323
aF1.8374435901641846
aF2.9887170791625977
aI8
aI8
aF0.30049455165863037
aI8
aI8
aa(lp91
F-1.0
aF-0.0
aF-0.0
aaI-1
a(lp92
F2.0581161975860596
aF2.4447829723358154
aF3.980039119720459
aI8
aI8
aF0.300494521856308
aF0.2609018385410309
aI8
aaa(lp93
(lp94
F2.2289135456085205
aF2.649153470993042
aF4.31743049621582
aI8
aI8
aF0.300494521856308
aF0.2609018385410309
aI8
aa(lp95
F-1.0
aF-0.0
aF-0.0
aaI1
a(lp96
F2.9515039920806885
aF3.5154311656951904
aF5.752902984619141
aI8
aI8
aF0.300494521856308
aI8
aI8
aaa(lp97
(lp98
F3.133519172668457
aF3.7334232330322266
aI8
aI8
aI8
aF0.300494521856308
aI8
aI8
aa(lp99
F0.3272114396095276
aF-0.0
aF-0.0
aaI-1
a(lp100
F3.664020538330078
aF0.26090186834335327
aF0.3004944920539856
aI8
aI8
aI8
aI8
aI8
aaa(lp101
(lp102
F0.23500007390975952
aF0.2609018087387085
aF0.30049455165863037
aI8
aI8
aI8
aI8
aI8
aa(lp103
F0.3272114396095276
aF-0.0
aF-0.0
aaI-1
a(lp104
F3.61959171295166
aF4.319447994232178
aI8
aI8
aI8
aI8
aI8
aI8
aaa(lp105
(lp106
F3.568422555923462
aF4.259093761444092
aI8
aI8
aI8
aI8
aI8
aI8
aa(lp107
F0.3272114396095276
aF-0.0
aF-0.0
aaI1
a(lp108
F3.323176145553589
aF3.9719321727752686
aI8
aI8
aI8
aI8
aI8
aI8
aaa(lp109
(lp110
F3.2543745040893555
aF3.8907978534698486
aI8
aI8
aI8
aI8
aI8
aI8
aa(lp111
F0.3272114396095276
aF-0.0
aF-0.0
aaI1
a(lp112
F3.0353474617004395
aF3.6301794052124023
aF5.9887471199035645
aI8
aI8
aI8
aI8
aI8
aaa(lp113
(lp114
F2.8803789615631104
aF3.445615530014038
aF5.686788558959961
aI8
aI8
aI8
aI8
aI8
aa(lp115
F0.3272114396095276
aF-0.0
aF-0.0
aaI-1
a(lp116
F0.23500008881092072
aF0.2609018385410309
aF5.144223690032959
aI8
aI8
aI8
aI8
aI8
aaa(lp117
(lp118
F2.527050256729126
aF3.0260210037231445
aF5.004307270050049
aI8
aI8
aI8
aI8
aI8
aa(lp119
F0.3272114396095276
aF-0.0
aF-0.0
aaI-1
a(lp120
F2.2827069759368896
aF2.7338199615478516
aF4.522349834442139
aI8
aI8
aI8
aI8
aI8
aaa(lp121
(lp122
F2.109823703765869
aF2.527988910675049
aF4.185856342315674
aI8
aI8
aI8
aI8
aI8
aa(lp123
F0.3272114396095276
aF-0.0
aF-0.0
aaI-1
a(lp124
F0.23500008881092072
aF0.2609018385410309
aF3.554460287094116
aI8
aI8
aI8
aI8
aI8
aaa(lp125
(lp126
F0.23500008881092072
aF2.0428647994995117
aF3.3932273387908936
aI8
aI8
aI8
aI8
aI8
aa(lp127
F0.3272114396095276
aF-0.0
aF-0.0
aaI-1
a(lp128
F0.23500008881092072
aF1.6058220863342285
aF2.668959379196167
aI8
aI8
aI8
aI8
aI8
aaa(lp129
(lp130
F0.23500008881092072
aF1.4921109676361084
aF2.4806666374206543
aI8
aI8
aI8
aI8
aI8
aa(lp131
F0.3272114396095276
aF-0.0
aF-0.0
aaI-1
a(lp132
F0.23500008881092072
aF1.024661660194397
aF1.703282117843628
aI8
aI8
aI8
aI8
aI8
aaa(lp133
(lp134
F0.23500008881092072
aF0.9053868651390076
aF1.5047962665557861
aI8
aI8
aI8
aI8
aI8
aa(lp135
F0.3272114396095276
aF-0.0
aF-0.0
aaI-1
a(lp136
F0.23500008881092072
aF0.4211183190345764
aF0.6998942494392395
aF4.9940505027771
aI8
aI8
aI8
aI8
aaa(lp137
(lp138
F0.30202075839042664
aF0.4069916605949402
aF0.8953269124031067
aI8
aI8
aI8
aI8
aI8
aa(lp139
F-1.0
aF-0.0
aF-0.0
aaI-1
a(lp140
F0.5834576487541199
aF0.7259116172790527
aF1.3009628057479858
aI8
aI8
aI8
aI8
aI8
aaa(lp141
(lp142
F0.6695799827575684
aF0.7933710813522339
aF1.2853184938430786
aI8
aF0.24103675782680511
aF0.3004939556121826
aI8
aI8
aa(lp143
F0.22955219447612762
aF-0.0
aF-0.0
aaI-1
a(lp144
F1.0077011585235596
aF0.2609018385410309
aF0.300494521856308
aI8
aI8
aI8
aI8
aI8
aaa(lp145
(lp146
F1.0382412672042847
aF0.2609018385410309
aF0.3004944622516632
aI8
aI8
aI8
aI8
aI8
aa(lp147
F0.22955219447612762
aF-0.0
aF-0.0
aaI-1
a(lp148
F0.8944194316864014
aF1.045209288597107
aF1.6497780084609985
aI8
aI8
aI8
aI8
aI8
aaa(lp149
(lp150
F0.7626787424087524
aF0.8949796557426453
aF1.4236162900924683
aI8
aI8
aI8
aI8
aI8
aa(lp151
F-0.6961641311645508
aF0.19697770476341248
aF-0.0
aaI-1
a(lp152
F0.7560949921607971
aF0.8919619917869568
aF1.4330101013183594
aI8
aF0.2410372495651245
aF0.30049455165863037
aI8
aI8
aaa(lp153
(lp154
F0.807216465473175
aF0.9541627168655396
aF1.5387378931045532
aI8
aF0.24103723466396332
aF0.30049455165863037
aF0.2609018087387085
aI8
aa(lp155
F-0.5659304261207581
aF0.16443534195423126
aF-0.0
aaI-1
a(lp156
F1.0799005031585693
aF1.2819851636886597
aF2.0845205783843994
aI8
aI8
aI8
aF0.2609018385410309
aF0.23500008881092072
aaa(lp157
(lp158
F1.187474012374878
aF1.4103240966796875
aF2.295196294784546
aI8
aI8
aF0.300494521856308
aF0.2609018385410309
aF0.23500008881092072
aa(lp159
F-0.5659304261207581
aF0.16443534195423126
aF-0.0
aaI-1
a(lp160
F1.6318310499191284
aF1.943652868270874
aF3.1808509826660156
aI8
aI8
aF0.300494521856308
aF0.2609018385410309
aF0.23500008881092072
aaa(lp161
(lp162
F1.748149037361145
aF2.083162307739258
aF3.412243366241455
aI8
aI8
aF0.300494521856308
aF0.2609018385410309
aF0.23500008881092072
aa(lp163
F-0.5659304261207581
aF0.16443534195423126
aF-0.0
aaI-1
a(lp164
F2.2360341548919678
aF2.669694423675537
aF4.3895487785339355
aI8
aI8
aF0.300494521856308
aF0.2609018385410309
aF0.23500008881092072
aaa(lp165
(lp166
F2.363170623779297
aF2.8231325149536133
aF4.647150039672852
aI8
aI8
aF0.30049455165863037
aF0.2609018385410309
aF0.23500008881092072
aa(lp167
F-0.5659304261207581
aF0.16443534195423126
aF-0.0
aaI1
a(lp168
F2.8907315731048584
aF3.4560325145721436
aI8
aI8
aI8
aF0.30049455165863037
aF0.2609018385410309
aF0.23500008881092072
aaa(lp169
(lp170
F3.1569745540618896
aF3.7756195068359375
aI8
aI8
aI8
aF0.300494521856308
aF0.2609018087387085
aF0.23500007390975952
aa(lp171
F-0.5659304261207581
aF0.16443534195423126
aF-0.0
aaI1
a(lp172
F3.6123507022857666
aF4.315506458282471
aI8
aI8
aI8
aF0.30049458146095276
aF0.2609018385410309
aI8
aaa(lp173
(lp174
F3.882667064666748
aF4.64691686630249
aI8
aI8
aI8
aI8
aI8
aI8
aa(lp175
F-0.5659304261207581
aF0.16443534195423126
aF-0.0
aaI-1
a(lp176
F4.3243255615234375
aF5.161135673522949
aI8
aI8
aF0.24103723466396332
aF0.30049455165863037
aI8
aI8
aaa(lp177
(lp178
F4.405795097351074
aF5.263646125793457
aI8
aI8
aF0.24103720486164093
aF0.300494521856308
aF0.2609018385410309
aI8
aa(lp179
F1.0
aF-0.09928634762763977
aF-0.0
aaI-1
a(lp180
F4.7148823738098145
aF5.646117687225342
aF0.300494521856308
aI8
aI8
aI8
aI8
aI8
aaa(lp181
(lp182
F4.685142517089844
aF5.608830451965332
aF0.300494521856308
aI8
aI8
aI8
aI8
aI8
aa(lp183
F1.0
aF-0.09928634762763977
aF-0.0
aaI-1
a(lp184
F4.0850396156311035
aF0.2609018385410309
aF0.300494521856308
aI8
aI8
aI8
aI8
aI8
aaa(lp185
(lp186
F3.905993938446045
aF0.2609018385410309
aF0.300494521856308
aI8
aI8
aI8
aI8
aI8
aa(lp187
F1.0
aF-0.09928634762763977
aF-0.0
aaI1
a(lp188
F3.1253185272216797
aF0.2609018385410309
aF0.300494521856308
aI8
aI8
aI8
aI8
aI8
aaa(lp189
(lp190
F2.917771100997925
aF0.2609018385410309
aF0.300494521856308
aI8
aI8
aI8
aI8
aI8
aa(lp191
F0.38147011399269104
aF1.0
aF-0.0
aaI-1
a(lp192
F2.3340227603912354
aF0.2609018087387085
aF0.30049461126327515
aI8
aI8
aF0.30049461126327515
aI8
aI8
aaa(lp193
(lp194
F2.1941237449645996
aF2.6220221519470215
aI8
aI8
aI8
aI8
aF0.2609018087387085
aI8
aa(lp195
F0.39232829213142395
aF1.0
aF-0.0
aaI-1
a(lp196
F0.23500007390975952
aF0.2609018385410309
aF0.30049455165863037
aI8
aI8
aF0.30049458146095276
aI8
aI8
aaa(lp197
(lp198
F1.6383750438690186
aF0.2609018385410309
aI8
aI8
aI8
aF0.30049455165863037
aI8
aI8
aa(lp199
F0.39232829213142395
aF1.0
aF-0.0
aaI-1
a(lp200
F1.3509138822555542
aF1.6170809268951416
aI8
aI8
aI8
aI8
aI8
aI8
aaa(lp201
(lp202
F1.2758467197418213
aF0.2609018385410309
aI8
aI8
aI8
aI8
aI8
aI8
aa(lp203
F-0.0
aF-0.7829651832580566
aF-0.0
aaI-1
a(lp204
F0.94544917345047
aI8
aI8
aI8
aI8
aI8
aI8
aI8
aaa(lp205
(lp206
I8
aI8
aF0.30049461126327515
aF0.2410372793674469
aF0.2410372793674469
aI8
aI8
aI8
aa(lp207
F-0.0
aF-0.96745765209198
aF-0.0
aaI-1
a(lp208
F0.5204311013221741
aI8
aI8
aI8
aI8
aI8
aI8
aI8
aaa(lp209
(lp210
F0.42215076088905334
aF0.5003254413604736
aI8
aI8
aI8
aI8
aI8
aI8
aa(lp211
F-0.0
aF-0.96745765209198
aF-0.0
aaI-1
a(lp212
F0.32586318254470825
aF0.41234666109085083
aF0.7682470679283142
aI8
aI8
aI8
aI8
aI8
aaa(lp213
(lp214
F0.30477282404899597
aF0.37752288579940796
aF0.6700409054756165
aI8
aI8
aI8
aI8
aI8
aa(lp215
F-0.0
aF-0.96745765209198
aF-0.0
aaI-1
a(lp216
F0.34113743901252747
aF0.4390971064567566
aF0.8526503443717957
aI8
aI8
aI8
aI8
aI8
aaa(lp217
(lp218
F0.332536906003952
aF0.4136580228805542
aF0.7410717010498047
aI8
aI8
aI8
aI8
aI8
aa(lp219
F-0.0
aF-0.96745765209198
aF-0.0
aaI-1
a(lp220
F0.3055863380432129
aF0.36151620745658875
aF0.5839285254478455
aI8
aI8
aI8
aI8
aI8
aaa(lp221
(lp222
F0.3143245577812195
aF0.37492385506629944
aF0.6152920126914978
aI8
aI8
aI8
aI8
aI8
aa(lp223
F0.4791293442249298
aF-0.0
aF-0.0
aaI-1
a(lp224
F0.2566472291946411
aF0.3114655911922455
aF0.529216468334198
aI8
aI8
aI8
aI8
aI8
aaa(lp225
(lp226
F0.252139151096344
aF0.35692113637924194
aF0.9233194589614868
aI8
aI8
aI8
aI8
aI8
aa(lp227
F1.0
aF-0.21866190433502197
aF-0.0
aaI-1
a(lp228
F0.8796555995941162
aI8
aI8
aI8
aI8
aI8
aI8
aI8
aaa(lp229
(lp230
F1.2143728733062744
aI8
aI8
aI8
aI8
aI8
aI8
aI8
aa(lp231
F-1.0
aF0.3597537875175476
aF-0.0
aaI-1
a(lp232
I8
aI8
aI8
aI8
aI8
aI8
aI8
aF4.044779300689697
aaa(lp233
(lp234
I8
aI8
aI8
aI8
aI8
aI8
aI8
aF3.2916228771209717
aa(lp235
F-1.0
aF0.3597537875175476
aF-0.0
aaI-1
a(lp236
F0.8427649736404419
aI8
aI8
aI8
aI8
aI8
aI8
aI8
aaa(lp237
(lp238
F0.6551053524017334
aF1.2123420238494873
aI8
aI8
aI8
aI8
aI8
aI8
aa(lp239
F-1.0
aF0.3597537875175476
aF-0.0
aaI-1
a(lp240
F0.7742546796798706
aF0.838664710521698
aF1.1665207147598267
aF2.8368077278137207
aI8
aI8
aF0.26090145111083984
aF0.23499974608421326
aaa(lp241
(lp242
F0.9717649221420288
aF1.0038478374481201
aF1.3051902055740356
aF2.600250244140625
aI8
aI8
aF0.26090186834335327
aF0.2350001186132431
aa(lp243
F-1.0
aF0.2946690618991852
aF-0.0
aaI-1
a(lp244
F1.3828856945037842
aF1.459795355796814
aF1.9554678201675415
aI8
aI8
aF0.3004944920539856
aF0.26090186834335327
aF0.2350001037120819
aaa(lp245
(lp246
F1.6058028936386108
aF1.7550410032272339
aF2.4746828079223633
aI8
aI8
aF0.3004949688911438
aF0.2609018385410309
aF0.23500007390975952
aa(lp247
F-1.0
aF0.2946690618991852
aF-0.0
aaI-1
a(lp248
F2.0469532012939453
aF2.3355648517608643
aF3.5326361656188965
aI8
aF0.24103721976280212
aF0.30049455165863037
aI8
aI8
aaa(lp249
(lp250
F2.28342866897583
aF2.6353824138641357
aI8
aI8
aI8
aF0.30049461126327515
aF0.2609018087387085
aI8
aa(lp251
F-1.0
aF0.2946690618991852
aF-0.0
aaI1
a(lp252
F2.8682520389556885
aF3.365058422088623
aI8
aI8
aF0.24103721976280212
aF0.300494521856308
aI8
aI8
aaa(lp253
(lp254
F3.163855791091919
aF3.737039089202881
aI8
aI8
aF0.2410372495651245
aF0.30049458146095276
aI8
aI8
aa(lp255
F-1.0
aF0.2946690618991852
aF-0.0
aaI-1
a(lp256
F3.888819932937622
aF4.63317346572876
aI8
aI8
aF0.24103723466396332
aF0.30049455165863037
aI8
aI8
aaa(lp257
(lp258
F4.048323631286621
aF4.828128337860107
aI8
aI8
aF0.24103721976280212
aF0.30049455165863037
aI8
aI8
aa(lp259
F-0.0
aF-0.0
aF0.6202212572097778
aaI-1
a(lp260
F4.580395221710205
aI8
aI8
aI8
aI8
aI8
aI8
aI8
aaa(lp261
(lp262
F4.715823650360107
aI8
aI8
aI8
aI8
aI8
aI8
aI8
aa(lp263
F-0.0
aF-0.0
aF0.6202212572097778
aaI-1
a(lp264
F4.817660808563232
aI8
aI8
aI8
aI8
aI8
aI8
aI8
aaa(lp265
(lp266
F4.838635444641113
aI8
aI8
aI8
aI8
aI8
aI8
aI8
aa(lp267
F0.3597537875175476
aF-0.0
aF-0.0
aaI-1
a(lp268
F4.783558368682861
aI8
aI8
aI8
aI8
aI8
aI8
aI8
aaa(lp269
(lp270
F4.738289833068848
aI8
aI8
aI8
aI8
aI8
aI8
aI8
aa(lp271
F0.6527636051177979
aF-0.0
aF-0.0
aaI-1
a(lp272
F0.23500007390975952
aF0.2609018385410309
aI8
aI8
aI8
aI8
aI8
aI8
aaa(lp273
(lp274
F0.23500008881092072
aF0.2609018385410309
aI8
aI8
aI8
aI8
aI8
aI8
aa(lp275
F0.6527636051177979
aF-0.0
aF-0.0
aaI-1
a(lp276
F0.23500008881092072
aF0.2609018385410309
aI8
aI8
aI8
aI8
aI8
aI8
aaa(lp277
(lp278
F0.23500008881092072
aF0.2609018385410309
aI8
aI8
aI8
aI8
aI8
aI8
aa(lp279
F0.6527636051177979
aF-0.0
aF-0.0
aaI1
a(lp280
F0.23500008881092072
aF0.2609018385410309
aI8
aI8
aI8
aI8
aI8
aI8
aaa(lp281
(lp282
F0.23500008881092072
aF0.2609018385410309
aI8
aI8
aI8
aI8
aI8
aI8
aa(lp283
F0.6527636051177979
aF-0.0
aF-0.0
aaI-1
a(lp284
F0.23500008881092072
aF0.2609018385410309
aI8
aI8
aI8
aI8
aI8
aI8
aaa(lp285
(lp286
F0.23500007390975952
aF0.2609018385410309
aI8
aI8
aI8
aI8
aI8
aI8
aa(lp287
F0.6527636051177979
aF-0.0
aF-0.0
aaI-1
a(lp288
F0.23500008881092072
aF0.2609018385410309
aI8
aI8
aI8
aI8
aI8
aI8
aaa(lp289
(lp290
F0.23500008881092072
aF0.26090186834335327
aF2.7227094173431396
aI8
aI8
aI8
aI8
aI8
aa(lp291
F0.6527636051177979
aF-0.0
aF-0.0
aaI-1
a(lp292
F0.9459747076034546
aF0.26090189814567566
aF0.300494521856308
aI8
aI8
aI8
aI8
aI8
aaa(lp293
(lp294
F0.8080591559410095
aF0.2609018385410309
aF0.300494521856308
aI8
aI8
aI8
aI8
aI8
aa(lp295
F-0.5225299000740051
aF-0.0
aF-0.0
aaI-1
a(lp296
F0.4128614664077759
aF0.49529263377189636
aF0.8220939040184021
aI8
aI8
aI8
aI8
aI8
aaa(lp297
(lp298
F0.4871290922164917
aF0.6195622086524963
aF1.1683887243270874
aI8
aI8
aI8
aI8
aI8
aa(lp299
F-0.5225299000740051
aF-0.0
aF-0.0
aaI-1
a(lp300
F0.666433572769165
aF0.7876319289207458
aF1.2698129415512085
aI8
aI8
aI8
aF0.26090186834335327
aF0.2350001037120819
aaa(lp301
(lp302
F0.7115675806999207
aF0.8392493724822998
aF1.3477635383605957
aI8
aI8
aI8
aI8
aF0.23500007390975952
aa(lp303
F0.27295273542404175
aF-0.0
aF-0.0
aaI-1
a(lp304
F0.23500007390975952
aF0.2609018385410309
aF1.4890505075454712
aI8
aI8
aI8
aI8
aI8
aaa(lp305
(lp306
F0.6989818215370178
aF0.8269972205162048
aF1.3360438346862793
aI8
aI8
aI8
aI8
aI8
aa(lp307
F0.27295273542404175
aF-0.0
aF-0.0
aaI-1
a(lp308
F0.23500008881092072
aF0.5630283355712891
aF0.9125463366508484
aI8
aI8
aI8
aI8
aI8
aaa(lp309
(lp310
F0.4090665876865387
aF0.4849744737148285
aF0.7865664958953857
aI8
aI8
aI8
aI8
aI8
aa(lp311
F-0.7395646572113037
aF0.16443534195423126
aF-0.0
aaI-1
a(lp312
F0.4862966239452362
aF0.6427233815193176
aF1.3377089500427246
aI8
aI8
aI8
aI8
aI8
aaa(lp313
(lp314
F0.5850064754486084
aF0.7442485094070435
aF1.4044291973114014
aI8
aI8
aI8
aI8
aI8
aa(lp315
F-0.7287065386772156
aF0.15357716381549835
aF-0.0
aaI-1
a(lp316
F1.0125941038131714
aF1.1808435916900635
aF1.8567357063293457
aI8
aI8
aI8
aF0.26090186834335327
aF0.2350001037120819
aaa(lp317
(lp318
F1.1471446752548218
aF1.337686538696289
aF2.103167772293091
aI8
aI8
aI8
aF0.2609018385410309
aF0.23500008881092072
aa(lp319
F0.348927766084671
aF-0.03416948765516281
aF-0.0
aaI-1
a(lp320
F1.4445983171463013
aF0.2609018385410309
aF0.300494521856308
aI8
aI8
aI8
aI8
aI8
aaa(lp321
(lp322
F0.23500004410743713
aF0.2609018087387085
aF2.690200090408325
aI8
aI8
aI8
aI8
aI8
aa(lp323
F0.348927766084671
aF-0.03416948765516281
aF-0.0
aaI-1
a(lp324
F0.23500008881092072
aF1.4800937175750732
aF2.371910572052002
aI8
aI8
aI8
aI8
aI8
aaa(lp325
(lp326
F1.1182695627212524
aF1.3186203241348267
aF2.116654396057129
aI8
aI8
aI8
aI8
aI8
aa(lp327
F0.348927766084671
aF-0.03416948765516281
aF-0.0
aaI-1
a(lp328
F0.2350001186132431
aF0.26090186834335327
aF1.752822756767273
aI8
aI8
aI8
aI8
aI8
aaa(lp329
(lp330
F0.7833680510520935
aF0.9255207777023315
aF1.4911601543426514
aI8
aI8
aI8
aI8
aI8
aa(lp331
F0.348927766084671
aF-0.03416948765516281
aF-0.0
aaI-1
a(lp332
F0.23500008881092072
aF0.5694423317909241
aF0.91886967420578
aI8
aI8
aI8
aI8
aI8
aaa(lp333
(lp334
F0.23500008881092072
aF0.47618818283081055
aF0.7688928246498108
aI8
aI8
aI8
aI8
aI8
aa(lp335
F0.348927766084671
aF-0.03416948765516281
aF-0.0
aaI-1
a(lp336
F0.25405973196029663
aF0.3503865897655487
aF0.8283671140670776
aI8
aI8
aI8
aI8
aI8
aaa(lp337
(lp338
F0.26902830600738525
aF0.42534148693084717
aF1.9236962795257568
aI8
aI8
aI8
aI8
aI8
aa(lp339
F-1.0
aF0.8263978958129883
aF-0.0
aaI-1
a(lp340
F2.3540608882904053
aF0.2609051764011383
aI8
aI8
aI8
aI8
aI8
aI8
aaa(lp341
(lp342
F1.4125810861587524
aF0.2609016001224518
aF0.30049261450767517
aF0.24103568494319916
aI8
aI8
aI8
aI8
aa(lp343
F-1.0
aF0.8263978958129883
aF-0.0
aaI-1
a(lp344
F1.1834361553192139
aF1.423397183418274
aF2.3748269081115723
aI8
aF0.24103811383247375
aF0.3004956543445587
aI8
aI8
aaa(lp345
(lp346
F1.5373722314834595
aF1.6429224014282227
aF2.2399041652679443
aF0.24103695154190063
aI8
aF0.3004941940307617
aF0.2609023153781891
aI8
aa(lp347
F-1.0
aF0.8263978958129883
aF-0.0
aaI-1
a(lp348
F2.2736592292785645
aF2.4378347396850586
aI8
aI8
aI8
aF0.30049464106559753
aF0.26090195775032043
aI8
aaa(lp349
(lp350
F2.443894863128662
aF2.6439967155456543
aI8
aI8
aI8
aF0.30049458146095276
aF0.26090171933174133
aI8
aa(lp351
F-1.0
aF0.8263978958129883
aF-0.0
aaI1
a(lp352
F3.2857401371002197
aI8
aI8
aI8
aI8
aF0.300494521856308
aI8
aI8
aaa(lp353
(lp354
F3.5079774856567383
aI8
aI8
aI8
aI8
aF0.30049455165863037
aI8
aI8
aa(lp355
F-0.0
aF-0.0
aF-0.0
aaI-1
a(lp356
F0.23499995470046997
aI8
aI8
aI8
aI8
aI8
aI8
aI8
aaa(lp357
(lp358
F4.223389625549316
aI8
aI8
aI8
aI8
aI8
aI8
aI8
aa(lp359
F-0.4031543433666229
aF-0.0
aF-0.0
aaI-1
a(lp360
F4.473605155944824
aI8
aI8
aI8
aI8
aI8
aF0.2609018385410309
aF0.23500008881092072
aaa(lp361
(lp362
F4.536616802215576
aI8
aI8
aI8
aI8
aI8
aI8
aF0.23500008881092072
aa(lp363
F-0.4031543433666229
aF-0.0
aF-0.0
aaI-1
a(lp364
I8
aI8
aI8
aI8
aI8
aI8
aF0.2609018385410309
aF0.23500008881092072
aaa(lp365
(lp366
I8
aI8
aI8
aI8
aI8
aI8
aF0.2609018385410309
aF0.23500008881092072
aa(lp367
F0.2078358680009842
aF-1.0
aF-0.0
aaI-1
a(lp368
I8
aI8
aI8
aI8
aI8
aI8
aI8
aI8
aaa(lp369
(lp370
I8
aI8
aI8
aI8
aI8
aI8
aI8
aI8
aa(lp371
F0.2078358680009842
aF-1.0
aF-0.0
aaI-1
a(lp372
I8
aI8
aI8
aI8
aI8
aI8
aI8
aI8
aaa(lp373
(lp374
I8
aI8
aI8
aI8
aI8
aI8
aI8
aI8
aa(lp375
F0.2078358680009842
aF-1.0
aF-0.0
aaI-1
a(lp376
F4.991352081298828
aI8
aI8
aI8
aI8
aI8
aI8
aI8
aaa(lp377
(lp378
F4.953288555145264
aI8
aI8
aI8
aI8
aI8
aI8
aI8
aa(lp379
F0.2078358680009842
aF-1.0
aF-0.0
aaI-1
a(lp380
F4.801967144012451
aI8
aI8
aI8
aI8
aI8
aI8
aI8
aaa(lp381
(lp382
F4.763345241546631
aI8
aI8
aI8
aI8
aI8
aI8
aI8
aa(lp383
F0.2078358680009842
aF-1.0
aF-0.0
aaI-1
a(lp384
F4.619685649871826
aF5.423683166503906
aI8
aI8
aI8
aI8
aI8
aI8
aaa(lp385
(lp386
F4.5824079513549805
aF5.377007961273193
aI8
aI8
aI8
aI8
aI8
aI8
aa(lp387
F1.0
aF-0.0
aF-0.0
aaI-1
a(lp388
F4.432660102844238
aF0.26090195775032043
aF0.300494521856308
aI8
aI8
aI8
aI8
aI8
aaa(lp389
(lp390
F4.343507289886475
aF5.150846004486084
aF0.30049455165863037
aF0.24103723466396332
aI8
aI8
aI8
aI8
aa(lp391
F1.0
aF-0.0
aF-0.0
aaI1
a(lp392
F3.669217586517334
aF0.2609018385410309
aI8
aI8
aI8
aI8
aI8
aI8
aaa(lp393
(lp394
F3.4763987064361572
aF0.2609018385410309
aF0.300494521856308
aI8
aI8
aI8
aI8
aI8
aa(lp395
F1.0
aF-0.0
aF-0.0
aaI-1
a(lp396
F2.644975185394287
aF0.2609018385410309
aF0.3004944920539856
aI8
aI8
aI8
aI8
aI8
aaa(lp397
(lp398
F2.4247524738311768
aF0.2609018385410309
aF0.300494521856308
aI8
aI8
aI8
aI8
aI8
aa(lp399
F-0.4790972173213959
aF-0.0
aF-0.0
aaI-1
a(lp400
F1.6890716552734375
aF1.9845200777053833
aF3.164006233215332
aI8
aI8
aI8
aF0.2609018385410309
aF0.23500007390975952
aaa.