(lp0
(lp1
(lp2
I9999
aI9999
aF5.940956115722656
aF4.857373237609863
aF4.933712005615234
aI9999
aI9999
aI9999
aaI-1
aa(lp3
(lp4
I9999
aI9999
aF5.974668979644775
aF4.884711265563965
aF4.961289405822754
aI9999
aI9999
aI9999
aaI-1
aa(lp5
(lp6
I9999
aI9999
aI9999
aF4.985352039337158
aF5.029086589813232
aI9999
aI9999
aI9999
aaI-1
aa(lp7
(lp8
I9999
aI9999
aI9999
aF5.112573146820068
aF5.045918941497803
aI9999
aI9999
aI9999
aaI-1
aa(lp9
(lp10
I9999
aI9999
aI9999
aF5.246569633483887
aF5.060119152069092
aI9999
aI9999
aI9999
aaI-1
aa(lp11
(lp12
I9999
aI9999
aI9999
aF5.385758399963379
aF5.077524185180664
aF5.908450126647949
aI9999
aI9999
aaI-1
aa(lp13
(lp14
I9999
aI9999
aI9999
aF5.454131126403809
aF5.09835147857666
aF5.877967834472656
aI9999
aI9999
aaI-1
aa(lp15
(lp16
I9999
aI9999
aI9999
aF5.46652889251709
aF5.110219478607178
aF5.89199686050415
aI9999
aI9999
aaI-1
aa(lp17
(lp18
I9999
aI9999
aI9999
aF5.512267589569092
aF5.151176929473877
aF5.936985015869141
aI9999
aI9999
aaI-1
aa(lp19
(lp20
I9999
aI9999
aI9999
aF5.572163105010986
aF5.204115390777588
aF5.994237899780273
aI9999
aI9999
aaI-1
aa(lp21
(lp22
I9999
aI9999
aI9999
aF5.61771821975708
aF5.2422566413879395
aI9999
aI9999
aI9999
aaI-1
aa(lp23
(lp24
I9999
aI9999
aI9999
aF5.63552188873291
aF5.257071018218994
aI9999
aI9999
aI9999
aaI-1
aa(lp25
(lp26
I9999
aI9999
aI9999
aF5.638912200927734
aF5.258047580718994
aI9999
aI9999
aI9999
aaI-1
aa(lp27
(lp28
I9999
aI9999
aF0.30049458146095276
aF0.2410372495651245
aF0.2410372495651245
aF0.30049458146095276
aI9999
aI9999
aaI-1
aa(lp29
(lp30
I9999
aI9999
aI9999
aF5.308877468109131
aF4.953155040740967
aF5.698913097381592
aI9999
aI9999
aaI-1
aa(lp31
(lp32
I9999
aI9999
aI9999
aF5.079267501831055
aF4.73189640045166
aF5.435680389404297
aI9999
aI9999
aaI-1
aa(lp33
(lp34
I9999
aI9999
aI9999
aF5.099251747131348
aF4.750532150268555
aF5.457110404968262
aI9999
aI9999
aaI-1
aa(lp35
(lp36
I9999
aI9999
aI9999
aF5.074371814727783
aF4.726564884185791
aF5.428609371185303
aI9999
aI9999
aaI-1
aa(lp37
(lp38
I9999
aI9999
aI9999
aF5.063693523406982
aF4.714719772338867
aF5.4126739501953125
aI9999
aI9999
aaI-1
aa(lp39
(lp40
I9999
aI9999
aI9999
aF5.053171157836914
aF4.70365047454834
aF5.398404598236084
aI9999
aI9999
aaI-1
aa(lp41
(lp42
I9999
aI9999
aI9999
aF5.04721212387085
aF4.6959333419799805
aF5.386889457702637
aI9999
aI9999
aaI-1
aa(lp43
(lp44
I9999
aI9999
aI9999
aF5.051316261291504
aF4.700854301452637
aF5.393885135650635
aI9999
aI9999
aaI-1
aa(lp45
(lp46
I9999
aI9999
aI9999
aF5.056662082672119
aF4.706596851348877
aF5.401415824890137
aI9999
aI9999
aaI-1
aa(lp47
(lp48
I9999
aI9999
aI9999
aF5.056653022766113
aF4.70692253112793
aF5.402198791503906
aI9999
aI9999
aaI-1
aa(lp49
(lp50
I9999
aI9999
aI9999
aF5.056807994842529
aF4.706188678741455
aF5.400279521942139
aI9999
aI9999
aaI-1
aa(lp51
(lp52
I9999
aI9999
aI9999
aF5.088802337646484
aF4.735045909881592
aF5.4322686195373535
aI9999
aI9999
aaI-1
aa(lp53
(lp54
I9999
aI9999
aI9999
aF5.123748779296875
aF4.771570682525635
aF5.479086875915527
aI9999
aI9999
aaI-1
aa(lp55
(lp56
I9999
aI9999
aI9999
aF5.208810329437256
aF4.849013805389404
aF5.5658392906188965
aI9999
aI9999
aaI-1
aa(lp57
(lp58
I9999
aI9999
aI9999
aF5.458036422729492
aF5.083470344543457
aF5.837958335876465
aI9999
aI9999
aaI-1
aa(lp59
(lp60
I9999
aI9999
aI9999
aF5.669283866882324
aF5.304529666900635
aI9999
aI9999
aI9999
aaI-1
aa(lp61
(lp62
I9999
aI9999
aI9999
aF5.683769702911377
aF5.298985004425049
aI9999
aI9999
aI9999
aaI-1
aa(lp63
(lp64
I9999
aI9999
aI9999
aF5.81477165222168
aF5.417735576629639
aI9999
aI9999
aI9999
aaI-1
aa(lp65
(lp66
I9999
aI9999
aI9999
aI9999
aF5.652334690093994
aI9999
aI9999
aI9999
aaI-1
aa(lp67
(lp68
I9999
aI9999
aI9999
aI9999
aF5.952920436859131
aI9999
aI9999
aI9999
aaI-1
aa(lp69
(lp70
I9999
aI9999
aI9999
aI9999
aI9999
aI9999
aI9999
aI9999
aaI-1
aa(lp71
(lp72
I9999
aI9999
aI9999
aI9999
aI9999
aI9999
aI9999
aI9999
aaI-1
aa(lp73
(lp74
I9999
aI9999
aI9999
aI9999
aI9999
aI9999
aI9999
aI9999
aaI-1
aa(lp75
(lp76
I9999
aI9999
aI9999
aI9999
aI9999
aI9999
aI9999
aI9999
aaI-1
aa(lp77
(lp78
I9999
aI9999
aF0.30049455165863037
aF0.24103723466396332
aF0.24103723466396332
aF0.30049455165863037
aI9999
aI9999
aaI-1
aa(lp79
(lp80
I9999
aI9999
aI9999
aI9999
aI9999
aI9999
aI9999
aI9999
aaI-1
aa(lp81
(lp82
I9999
aI9999
aF0.30049458146095276
aI9999
aI9999
aF0.30049458146095276
aF0.26090189814567566
aI9999
aaI-1
aa(lp83
(lp84
I9999
aI9999
aI9999
aF0.24103723466396332
aF0.24103723466396332
aF0.30049455165863037
aI9999
aI9999
aaI-1
aa(lp85
(lp86
I9999
aI9999
aI9999
aF5.2799577713012695
aF4.915006637573242
aF5.641294002532959
aI9999
aI9999
aaI-1
aa(lp87
(lp88
I9999
aI9999
aI9999
aF5.359879493713379
aF4.99243688583374
aF5.733889579772949
aI9999
aI9999
aaI-1
aa(lp89
(lp90
I9999
aI9999
aI9999
aF5.305726528167725
aF4.942793369293213
aF5.677853107452393
aI9999
aI9999
aaI-1
aa(lp91
(lp92
I9999
aI9999
aI9999
aF5.283261299133301
aF4.920195579528809
aF5.649843215942383
aI9999
aI9999
aaI-1
aa(lp93
(lp94
I9999
aI9999
aI9999
aF5.257659912109375
aF4.896598815917969
aF5.623048782348633
aI9999
aI9999
aaI-1
aa(lp95
(lp96
I9999
aI9999
aI9999
aF5.234187602996826
aF4.875610828399658
aF5.600018501281738
aI9999
aI9999
aaI-1
aa(lp97
(lp98
I9999
aI9999
aI9999
aF5.20927095413208
aF4.851412773132324
aF5.571011543273926
aI9999
aI9999
aaI-1
aa(lp99
(lp100
I9999
aI9999
aI9999
aF5.172295093536377
aF4.817667007446289
aF5.533108234405518
aI9999
aI9999
aaI-1
aa(lp101
(lp102
I9999
aI9999
aI9999
aF5.131258487701416
aF4.779663562774658
aF5.4897308349609375
aI9999
aI9999
aaI-1
aa(lp103
(lp104
I9999
aI9999
aI9999
aF5.103092193603516
aF4.752110481262207
aF5.456467151641846
aI9999
aI9999
aaI-1
aa(lp105
(lp106
I9999
aI9999
aI9999
aF5.079439163208008
aF4.732629299163818
aF5.437226295471191
aI9999
aI9999
aaI-1
aa(lp107
(lp108
I9999
aI9999
aI9999
aF5.054410934448242
aF4.71406364440918
aF5.421755790710449
aI9999
aI9999
aaI-1
aa(lp109
(lp110
I9999
aI9999
aI9999
aF5.01643180847168
aF4.680257320404053
aF5.384868621826172
aI9999
aI9999
aaI-1
aa(lp111
(lp112
I9999
aI9999
aI9999
aF5.00081205368042
aF4.665410995483398
aF5.367449760437012
aI9999
aI9999
aaI-1
aa(lp113
(lp114
I9999
aI9999
aI9999
aF4.9832072257995605
aF4.649228096008301
aF5.349129676818848
aI9999
aI9999
aaI-1
aa(lp115
(lp116
I9999
aI9999
aI9999
aF4.965264320373535
aF4.635753631591797
aF5.337665557861328
aI9999
aI9999
aaI-1
aa(lp117
(lp118
I9999
aI9999
aI9999
aF4.977936744689941
aF4.648220539093018
aF5.35280704498291
aI9999
aI9999
aaI-1
aa(lp119
(lp120
I9999
aI9999
aF0.30049458146095276
aF0.2410372495651245
aF0.2410372495651245
aF0.30049455165863037
aI9999
aI9999
aaI-1
aa(lp121
(lp122
I9999
aI9999
aI9999
aF4.626023292541504
aF4.3374552726745605
aF5.017216205596924
aI9999
aI9999
aaI-1
aa(lp123
(lp124
I9999
aI9999
aI9999
aF4.655080318450928
aF4.351041793823242
aF5.015908718109131
aI9999
aI9999
aaI-1
aa(lp125
(lp126
I9999
aI9999
aI9999
aF4.608190059661865
aF4.307806968688965
aF4.966804504394531
aI9999
aI9999
aaI-1
aa(lp127
(lp128
I9999
aI9999
aI9999
aF4.566784858703613
aF4.264903545379639
aF4.912131309509277
aI9999
aI9999
aaI-1
aa(lp129
(lp130
I9999
aI9999
aI9999
aF4.54475212097168
aF4.2441301345825195
aF4.8879618644714355
aI9999
aI9999
aaI-1
aa(lp131
(lp132
I9999
aI9999
aI9999
aF4.526649475097656
aF4.225971698760986
aF4.865496635437012
aI9999
aI9999
aaI-1
aa(lp133
(lp134
I9999
aI9999
aI9999
aF4.502236843109131
aF4.203851699829102
aF4.840860843658447
aI9999
aI9999
aaI-1
aa(lp135
(lp136
I9999
aI9999
aI9999
aF4.48783540725708
aF4.189603328704834
aF4.823461532592773
aI9999
aI9999
aaI-1
aa(lp137
(lp138
I9999
aI9999
aI9999
aF4.460162162780762
aF4.162683963775635
aF4.791126728057861
aI9999
aI9999
aaI-1
aa(lp139
(lp140
I9999
aI9999
aI9999
aF4.45119571685791
aF4.15397834777832
aF4.780691146850586
aI9999
aI9999
aaI-1
aa(lp141
(lp142
I9999
aI9999
aI9999
aF4.461517333984375
aF4.1618170738220215
aF4.787497043609619
aI9999
aI9999
aaI-1
aa(lp143
(lp144
I9999
aI9999
aI9999
aF4.48249626159668
aF4.183235168457031
aF4.814419269561768
aI9999
aI9999
aaI-1
aa(lp145
(lp146
I9999
aI9999
aI9999
aF4.504932403564453
aF4.201527118682861
aF4.832203388214111
aI9999
aI9999
aaI-1
aa(lp147
(lp148
I9999
aI9999
aI9999
aF4.539729595184326
aF4.230546951293945
aF4.8613505363464355
aI9999
aI9999
aaI-1
aa(lp149
(lp150
I9999
aI9999
aI9999
aF4.551183223724365
aF4.241590976715088
aF4.8744964599609375
aI9999
aI9999
aaI-1
aa(lp151
(lp152
I9999
aI9999
aI9999
aF4.555068016052246
aF4.246091842651367
aF4.880753993988037
aI9999
aI9999
aaI-1
aa(lp153
(lp154
I9999
aI9999
aI9999
aF4.5483078956604
aF4.241058349609375
aF4.876530647277832
aI9999
aI9999
aaI-1
aa(lp155
(lp156
I9999
aI9999
aI9999
aF4.538140773773193
aF4.230073928833008
aF4.862048149108887
aI9999
aI9999
aaI-1
aa(lp157
(lp158
I9999
aI9999
aI9999
aF4.532044887542725
aF4.22537899017334
aF4.85786771774292
aI9999
aI9999
aaI-1
aa(lp159
(lp160
I9999
aI9999
aI9999
aF4.519255638122559
aF4.2120256423950195
aF4.840754985809326
aI9999
aI9999
aaI-1
aa(lp161
(lp162
I9999
aI9999
aI9999
aF4.499576091766357
aF4.195102214813232
aF4.823052406311035
aI9999
aI9999
aaI-1
aa(lp163
(lp164
I9999
aI9999
aI9999
aF4.483913421630859
aF4.179908275604248
aF4.8048553466796875
aI9999
aI9999
aaI-1
aa(lp165
(lp166
I9999
aI9999
aI9999
aF4.476919651031494
aF4.172590732574463
aF4.795462131500244
aI9999
aI9999
aaI-1
aa(lp167
(lp168
I9999
aI9999
aI9999
aF4.475129127502441
aF4.169988632202148
aF4.791322231292725
aI9999
aI9999
aaI-1
aa(lp169
(lp170
I9999
aI9999
aI9999
aF4.483988285064697
aF4.177731990814209
aF4.799591064453125
aI9999
aI9999
aaI-1
aa(lp171
(lp172
I9999
aI9999
aI9999
aF4.501481056213379
aF4.193729877471924
aF4.817600727081299
aI9999
aI9999
aaI-1
aa(lp173
(lp174
I9999
aI9999
aI9999
aF4.522244930267334
aF4.203363418579102
aF4.816784858703613
aI9999
aI9999
aaI-1
aa(lp175
(lp176
I9999
aI9999
aI9999
aF4.526728630065918
aF4.198653697967529
aF4.800599575042725
aI9999
aI9999
aaI-1
aa(lp177
(lp178
I9999
aI9999
aI9999
aF4.517178535461426
aF4.189449310302734
aF4.789655685424805
aI9999
aI9999
aaI-1
aa(lp179
(lp180
I9999
aI9999
aI9999
aF4.520143032073975
aF4.1934638023376465
aF4.795780181884766
aI9999
aI9999
aaI-1
aa(lp181
(lp182
I9999
aI9999
aI9999
aF4.529719829559326
aF4.202568054199219
aF4.806458473205566
aI9999
aI9999
aaI-1
aa(lp183
(lp184
I9999
aI9999
aI9999
aF4.6663126945495605
aF4.212669849395752
aF4.684118747711182
aI9999
aI9999
aaI-1
aa(lp185
(lp186
I9999
aI9999
aI9999
aF5.530264854431152
aF4.372341156005859
aF4.322568893432617
aF5.3134236335754395
aI9999
aaI-1
aa(lp187
(lp188
I9999
aI9999
aI9999
aI9999
aF4.567008018493652
aF4.224501609802246
aF4.816272258758545
aI9999
aaI-1
aa(lp189
(lp190
I9999
aI9999
aI9999
aI9999
aF4.53236722946167
aF4.180612087249756
aF4.752073287963867
aI9999
aaI-1
aa(lp191
(lp192
I9999
aI9999
aI9999
aI9999
aF4.502514839172363
aF4.1485748291015625
aF4.710304260253906
aI9999
aaI-1
aa(lp193
(lp194
I9999
aI9999
aI9999
aI9999
aF4.477953910827637
aF4.1233696937561035
aF4.678631782531738
aI9999
aaI-1
aa(lp195
(lp196
I9999
aI9999
aI9999
aI9999
aF4.462677478790283
aF4.108766555786133
aF4.661426544189453
aI9999
aaI-1
aa(lp197
(lp198
I9999
aI9999
aI9999
aF5.533093452453613
aF4.276528358459473
aF4.155055046081543
aF5.00283670425415
aI9999
aaI-1
aa(lp199
(lp200
I9999
aI9999
aI9999
aF4.9932074546813965
aF4.153456211090088
aF4.280528545379639
aI9999
aI9999
aaI-1
aa(lp201
(lp202
I9999
aI9999
aI9999
aF4.678945541381836
aF4.113129615783691
aF4.45595645904541
aI9999
aI9999
aaI-1
aa(lp203
(lp204
I9999
aI9999
aF4.614238262176514
aF4.123502731323242
aF4.538865566253662
aI9999
aI9999
aI9999
aaI-1
aa(lp205
(lp206
I9999
aF5.916504859924316
aF4.449620246887207
aF4.237467288970947
aF4.986346244812012
aI9999
aI9999
aI9999
aaI-1
aa(lp207
(lp208
I9999
aI9999
aF4.733100891113281
aF4.284351825714111
aF4.776599884033203
aI9999
aI9999
aI9999
aaI-1
aa(lp209
(lp210
I9999
aI9999
aF5.184654712677002
aF4.410815715789795
aF4.636176586151123
aI9999
aI9999
aI9999
aaI-1
aa(lp211
(lp212
I9999
aI9999
aF5.26349401473999
aF4.470649242401123
aF4.692285060882568
aI9999
aI9999
aI9999
aaI-1
aa(lp213
(lp214
I9999
aI9999
aF5.298373699188232
aF4.505068778991699
aF4.73290491104126
aI9999
aI9999
aI9999
aaI-1
aa(lp215
(lp216
I9999
aI9999
aF5.3664045333862305
aF4.535096168518066
aF4.738645076751709
aI9999
aI9999
aI9999
aaI-1
aa(lp217
(lp218
I9999
aI9999
aF5.390040397644043
aF4.552389144897461
aF4.754242897033691
aI9999
aI9999
aI9999
aaI-1
aa(lp219
(lp220
I9999
aI9999
aF5.424647331237793
aF4.5528035163879395
aF4.728446006774902
aI9999
aI9999
aI9999
aaI-1
aa(lp221
(lp222
I9999
aI9999
aF5.427832126617432
aF4.554948806762695
aF4.730195999145508
aI9999
aI9999
aI9999
aaI-1
aa(lp223
(lp224
I9999
aI9999
aF5.433476448059082
aF4.558989524841309
aF4.733763217926025
aI9999
aI9999
aI9999
aaI-1
aa(lp225
(lp226
I9999
aF0.2609018385410309
aF0.30049455165863037
aF4.518103122711182
aF4.696818828582764
aF0.30049455165863037
aI9999
aI9999
aaI-1
aa(lp227
(lp228
I9999
aF0.2609018385410309
aF0.30049455165863037
aF4.04315185546875
aF4.20690393447876
aF0.30049458146095276
aI9999
aI9999
aaI-1
aa(lp229
(lp230
I9999
aI9999
aF4.052915573120117
aF3.4140095710754395
aF3.55708909034729
aF4.678991317749023
aI9999
aI9999
aaI1
aa(lp231
(lp232
I9999
aI9999
aF4.169921875
aF3.5088858604431152
aF3.652578353881836
aF4.798548221588135
aI9999
aI9999
aaI1
aa(lp233
(lp234
I9999
aI9999
aF4.066898345947266
aF3.4217019081115723
aF3.561375617980957
aF4.6779255867004395
aI9999
aI9999
aaI1
aa(lp235
(lp236
I9999
aI9999
aF4.012337684631348
aF3.3761539459228516
aF3.514293909072876
aF4.6166672706604
aI9999
aI9999
aaI1
aa(lp237
(lp238
I9999
aI9999
aF3.947561264038086
aF3.3227875232696533
aF3.4597833156585693
aF4.546926498413086
aI9999
aI9999
aaI1
aa(lp239
(lp240
I9999
aI9999
aF3.882803201675415
aF3.2675507068634033
aF3.4016048908233643
aF4.469273090362549
aI9999
aI9999
aaI1
aa(lp241
(lp242
I9999
aI9999
aF3.8169162273406982
aF3.213732957839966
aF3.3470664024353027
aF4.400291919708252
aI9999
aI9999
aaI1
aa(lp243
(lp244
I9999
aI9999
aF3.778796672821045
aF3.1836862564086914
aF3.3176467418670654
aF4.364991664886475
aI9999
aI9999
aaI1
aa(lp245
(lp246
I9999
aI9999
aF3.732344388961792
aF3.1484577655792236
aF3.284519910812378
aF4.3278889656066895
aI9999
aI9999
aaI1
aa(lp247
(lp248
I9999
aI9999
aF3.71679425239563
aF3.1352176666259766
aF3.270594835281372
aF4.309336185455322
aI9999
aI9999
aaI1
aa(lp249
(lp250
I9999
aI9999
aF3.7486679553985596
aF3.1620357036590576
aF3.298508405685425
aF4.346001625061035
aI9999
aI9999
aaI1
aa(lp251
(lp252
I9999
aI9999
aF3.7959084510803223
aF3.199460744857788
aF3.3353278636932373
aF4.390498161315918
aI9999
aI9999
aaI1
aa(lp253
(lp254
I9999
aI9999
aF3.822678565979004
aF3.2222788333892822
aF3.3593480587005615
aF4.422538757324219
aI9999
aI9999
aaI1
aa(lp255
(lp256
I9999
aI9999
aF3.8608624935150146
aF3.2534825801849365
aF3.390979051589966
aF4.462555408477783
aI9999
aI9999
aaI1
aa(lp257
(lp258
I9999
aI9999
aF3.8954689502716064
aF3.281672954559326
aF3.419471263885498
aF4.498447418212891
aI9999
aI9999
aaI1
aa(lp259
(lp260
I9999
aI9999
aF3.930201768875122
aF3.310502290725708
aF3.449117660522461
aF4.536738872528076
aI9999
aI9999
aaI1
aa(lp261
(lp262
I9999
aI9999
aF3.9655141830444336
aF3.3406856060028076
aF3.480966329574585
aF4.5793538093566895
aI9999
aI9999
aaI1
aa(lp263
(lp264
I9999
aI9999
aF3.968285083770752
aF3.344038248062134
aF3.48539137840271
aF4.586856365203857
aI9999
aI9999
aaI1
aa(lp265
(lp266
I9999
aI9999
aF3.929960012435913
aF3.314082145690918
aF3.4563140869140625
aF4.5524678230285645
aI9999
aI9999
aaI1
aa(lp267
(lp268
I9999
aI9999
aF3.8726918697357178
aF3.266788959503174
aF3.4079091548919678
aF4.4903740882873535
aI9999
aI9999
aaI1
aa(lp269
(lp270
I9999
aI9999
aF3.819171667098999
aF3.222064256668091
aF3.361639976501465
aF4.430109977722168
aI9999
aI9999
aaI1
aa(lp271
(lp272
I9999
aI9999
aF3.7637929916381836
aF3.1773111820220947
aF3.3167569637298584
aF4.374242782592773
aI9999
aI9999
aaI1
aa(lp273
(lp274
I9999
aI9999
aF3.7289540767669678
aF3.150184154510498
aF3.2905426025390625
aF4.343494892120361
aI9999
aI9999
aaI1
aa(lp275
(lp276
I9999
aI9999
aF3.7167131900787354
aF3.1405794620513916
aF3.281188726425171
aF4.33238410949707
aI9999
aI9999
aaI1
aa(lp277
(lp278
I9999
aF5.984076023101807
aF3.7042222023010254
aF3.130887985229492
aF3.271860361099243
aF4.321519374847412
aI9999
aI9999
aaI1
aa(lp279
(lp280
I9999
aF5.98910665512085
aF3.7056479454040527
aF3.131347179412842
aF3.2716519832611084
aF4.3199896812438965
aI9999
aI9999
aaI1
aa(lp281
(lp282
I9999
aI9999
aF3.7206335067749023
aF3.14375638961792
aF3.2843830585479736
aF4.336374282836914
aI9999
aI9999
aaI1
aa(lp283
(lp284
I9999
aI9999
aF3.745309591293335
aF3.16292667388916
aF3.302863121032715
aF4.35795783996582
aI9999
aI9999
aaI1
aa(lp285
(lp286
I9999
aI9999
aF3.7748396396636963
aF3.1899046897888184
aF3.3329155445098877
aF4.401034355163574
aI9999
aI9999
aaI1
aa(lp287
(lp288
I9999
aF0.2609018385410309
aF0.30049458146095276
aF3.1068904399871826
aF3.251587152481079
aF0.30049455165863037
aF0.2609018385410309
aI9999
aaI1
aa(lp289
(lp290
I9999
aF5.163050651550293
aF3.2431249618530273
aF2.7624716758728027
aF2.9068186283111572
aF3.876366376876831
aI9999
aI9999
aaI1
aa(lp291
(lp292
I9999
aF5.307519912719727
aF3.316120147705078
aF2.8166239261627197
aF2.956273078918457
aF3.9283156394958496
aI9999
aI9999
aaI1
aa(lp293
(lp294
I9999
aF5.233119964599609
aF3.2666804790496826
aF2.773301362991333
aF2.9095592498779297
aF3.8639402389526367
aI9999
aI9999
aaI1
aa(lp295
(lp296
I9999
aF5.165149211883545
aF3.2268552780151367
aF2.740664005279541
aF2.876415252685547
aF3.8219563961029053
aI9999
aI9999
aaI1
aa(lp297
(lp298
I9999
aF5.111541271209717
aF3.191716194152832
aF2.7100772857666016
aF2.8436195850372314
aF3.777094841003418
aI9999
aI9999
aaI1
aa(lp299
(lp300
I9999
aF5.070699691772461
aF3.16800856590271
aF2.690755605697632
aF2.8241019248962402
aF3.7525711059570312
aI9999
aI9999
aaI1
aa(lp301
(lp302
I9999
aF5.02164363861084
aF3.137939453125
aF2.665477752685547
aF2.7978157997131348
aF3.7180960178375244
aI9999
aI9999
aaI-1
aa(lp303
(lp304
I9999
aF4.95849609375
aF3.1034531593322754
aF2.6384317874908447
aF2.7715346813201904
aF3.6870834827423096
aI9999
aI9999
aaI-1
aa(lp305
(lp306
I9999
aF4.909930229187012
aF3.0744385719299316
aF2.6143903732299805
aF2.7468671798706055
aF3.6553595066070557
aI9999
aI9999
aaI-1
aa(lp307
(lp308
I9999
aF4.872097492218018
aF3.0530495643615723
aF2.59724497795105
aF2.7298331260681152
aF3.6345162391662598
aI9999
aI9999
aaI-1
aa(lp309
(lp310
I9999
aF4.849949359893799
aF3.0368218421936035
aF2.582376003265381
aF2.7132058143615723
aF3.61051869392395
aI9999
aI9999
aaI-1
aa(lp311
(lp312
I9999
aF4.818221092224121
aF3.019437313079834
aF2.568718194961548
aF2.699913263320923
aF3.594799280166626
aI9999
aI9999
aaI-1
aa(lp313
(lp314
I9999
aF5.433418273925781
aF3.1580049991607666
aF2.5865859985351562
aF2.6311092376708984
aF3.352064609527588
aI9999
aI9999
aaI-1
aa(lp315
(lp316
I9999
aI9999
aF4.6220574378967285
aF2.9576878547668457
aF2.5448431968688965
aF2.702338933944702
aF3.6505913734436035
aI9999
aaI-1
aa(lp317
(lp318
I9999
aI9999
aF5.9242048263549805
aF3.227984666824341
aF2.5674872398376465
aF2.5502700805664062
aF3.1529929637908936
aI9999
aaI-1
aa(lp319
(lp320
I9999
aI9999
aF4.752030372619629
aF2.941164970397949
aF2.4857568740844727
aF2.5975162982940674
aF3.430535316467285
aI9999
aaI-1
aa(lp321
(lp322
I9999
aI9999
aF3.499544858932495
aF2.596266508102417
aF2.4487345218658447
aF2.850813865661621
aF4.468806743621826
aI9999
aaI-1
aa(lp323
(lp324
I9999
aI9999
aF3.532304525375366
aF2.6119415760040283
aF2.4578559398651123
aF2.854228973388672
aF4.453696250915527
aI9999
aaI-1
aa(lp325
(lp326
I9999
aI9999
aF3.4996824264526367
aF2.6085638999938965
aF2.4684462547302246
aF2.8842055797576904
aF4.551334381103516
aI9999
aaI-1
aa(lp327
(lp328
I9999
aF4.116812705993652
aF2.807875156402588
aF2.506842613220215
aF2.756755828857422
aF3.924527168273926
aI9999
aI9999
aaI-1
aa(lp329
(lp330
I9999
aF4.484204292297363
aF2.922640562057495
aF2.5406055450439453
aF2.723485231399536
aF3.730023145675659
aI9999
aI9999
aaI-1
aa(lp331
(lp332
I9999
aF5.736505031585693
aF3.23943829536438
aF2.617877721786499
aF2.6336581707000732
aF3.308170795440674
aI9999
aI9999
aaI-1
aa(lp333
(lp334
I9999
aF5.351670742034912
aF3.1805219650268555
aF2.633251667022705
aF2.7029762268066406
aF3.4847590923309326
aI9999
aI9999
aaI-1
aa(lp335
(lp336
I9999
aF5.41168212890625
aF3.190336227416992
aF2.630971908569336
aF2.6916253566741943
aF3.454869508743286
aI9999
aI9999
aaI-1
aa(lp337
(lp338
I9999
aF5.3581671714782715
aF3.1649818420410156
aF2.612553596496582
aF2.674935817718506
aF3.437084197998047
aI9999
aI9999
aaI-1
aa(lp339
(lp340
I9999
aF5.327723026275635
aF3.1477551460266113
aF2.5986380577087402
aF2.6609513759613037
aF3.4195609092712402
aI9999
aI9999
aaI-1
aa(lp341
(lp342
I9999
aI9999
aF3.31583571434021
aF2.6315393447875977
aF2.6093409061431885
aF3.2191405296325684
aI9999
aI9999
aaI-1
aa(lp343
(lp344
I9999
aI9999
aF3.7142913341522217
aF2.721308469772339
aF2.544524669647217
aF2.9345295429229736
aF4.5225725173950195
aI9999
aaI-1
aa(lp345
(lp346
I9999
aI9999
aF3.6932218074798584
aF2.7014095783233643
aF2.5230679512023926
aF2.906247854232788
aF4.46933126449585
aI9999
aaI-1
aa(lp347
(lp348
I9999
aI9999
aF3.657785415649414
aF2.6758527755737305
aF2.4994301795959473
aF2.879307270050049
aF4.428683757781982
aI9999
aaI-1
aa(lp349
(lp350
I9999
aI9999
aF3.646601915359497
aF2.6668384075164795
aF2.490478754043579
aF2.8683366775512695
aF4.4100165367126465
aI9999
aaI-1
aa(lp351
(lp352
I9999
aI9999
aF3.6375434398651123
aF2.659177780151367
aF2.4826645851135254
aF2.8585195541381836
aF4.392699241638184
aI9999
aaI-1
aa(lp353
(lp354
I9999
aI9999
aF3.6442501544952393
aF2.6644320487976074
aF2.4877936840057373
aF2.8647022247314453
aF4.402953624725342
aI9999
aaI-1
aa(lp355
(lp356
I9999
aI9999
aF3.9468822479248047
aF2.7558059692382812
aF2.496401071548462
aF2.785336494445801
aF4.057925224304199
aI9999
aaI-1
aa(lp357
(lp358
I9999
aI9999
aF4.407114505767822
aF2.881319522857666
aF2.5091018676757812
aF2.6941404342651367
aF3.698770046234131
aI9999
aaI-1
aa(lp359
(lp360
I9999
aI9999
aF4.641045093536377
aF2.9433791637420654
aF2.520169496536255
aF2.6642558574676514
aF3.5763657093048096
aI9999
aaI-1
aa(lp361
(lp362
I9999
aI9999
aF4.75763463973999
aF2.963139057159424
aF2.5125882625579834
aF2.6332242488861084
aF3.491772413253784
aI9999
aaI-1
aa(lp363
(lp364
I9999
aI9999
aF4.720056533813477
aF2.9454827308654785
aF2.5001983642578125
aF2.6226484775543213
aF3.4821977615356445
aI9999
aaI-1
aa(lp365
(lp366
I9999
aI9999
aF3.960421323776245
aF2.749669075012207
aF2.4819910526275635
aF2.7593488693237305
aF3.996814727783203
aI9999
aaI-1
aa(lp367
(lp368
I9999
aI9999
aF3.37558650970459
aF2.6029105186462402
aF2.524557590484619
aF3.033459186553955
aI9999
aI9999
aaI-1
aa(lp369
(lp370
I9999
aI9999
aF3.4412841796875
aF2.6416285037994385
aF2.553515911102295
aF3.056307315826416
aI9999
aI9999
aaI-1
aa(lp371
(lp372
I9999
aI9999
aF3.465850353240967
aF2.662523031234741
aF2.575176477432251
aF3.084261178970337
aI9999
aI9999
aaI-1
aa(lp373
(lp374
I9999
aF0.2609018087387085
aF0.30049455165863037
aF2.559925079345703
aF2.4791104793548584
aF0.30049455165863037
aF0.2609018385410309
aI9999
aaI-1
aa(lp375
(lp376
I9999
aF5.660576343536377
aF2.8250179290771484
aF2.1679773330688477
aF2.0952422618865967
aF2.507215976715088
aF4.140655994415283
aI9999
aaI-1
aa(lp377
(lp378
I9999
aF5.854132175445557
aF2.9314236640930176
aF2.2525315284729004
aF2.1790401935577393
aF2.6103756427764893
aF4.320471286773682
aI9999
aaI-1
aa(lp379
(lp380
I9999
aF5.81815767288208
aF2.9134867191314697
aF2.238771438598633
aF2.165745496749878
aF2.5944721698760986
aF4.294223785400391
aI9999
aaI-1
aa(lp381
(lp382
I9999
aF5.747960567474365
aF2.881885051727295
aF2.2155394554138184
aF2.1440281867980957
aF2.569506883621216
aF4.256357192993164
aI9999
aaI-1
aa(lp383
(lp384
I9999
aF5.68574857711792
aF2.855116367340088
aF2.1962738037109375
aF2.126330852508545
aF2.549614667892456
aF4.227743625640869
aI9999
aaI-1
aa(lp385
(lp386
I9999
aF5.624576568603516
aF2.828200101852417
aF2.1767003536224365
aF2.1081974506378174
aF2.5290093421936035
aF4.197332382202148
aI9999
aaI-1
aa(lp387
(lp388
I9999
aF5.5296711921691895
aF2.7882909774780273
aF2.148320436477661
aF2.082400321960449
aF2.5004217624664307
aF4.157703876495361
aI9999
aaI-1
aa(lp389
(lp390
I9999
aF5.458878040313721
aF2.7572574615478516
aF2.1258089542388916
aF2.061593770980835
aF2.4768574237823486
aF4.123239040374756
aI9999
aaI-1
aa(lp391
(lp392
I9999
aF5.361146926879883
aF2.7144713401794434
aF2.0948030948638916
aF2.032963514328003
aF2.4444777965545654
aF4.076071262359619
aI9999
aaI-1
aa(lp393
(lp394
I9999
aF5.2949724197387695
aF2.6836841106414795
aF2.0718648433685303
aF2.0112993717193604
aF2.419266700744629
aF4.036838054656982
aI9999
aaI-1
aa(lp395
(lp396
I9999
aF5.2677321434021
aF2.673828363418579
aF2.0654518604278564
aF2.0059449672698975
aF2.414050579071045
aF4.032241344451904
aI9999
aaI-1
aa(lp397
(lp398
I9999
aF5.279053688049316
aF2.6777470111846924
aF2.0679256916046143
aF2.0079448223114014
aF2.415890693664551
aF4.033414363861084
aI9999
aaI-1
aa(lp399
(lp400
I9999
aF5.276744365692139
aF2.6814956665039062
aF2.072312831878662
aF2.0132923126220703
aF2.423855781555176
aF4.05185604095459
aI9999
aaI-1
aa(lp401
(lp402
I9999
aF5.251368522644043
aF2.674574136734009
aF2.068782329559326
aF2.0111911296844482
aF2.4231998920440674
aF4.057077884674072
aI9999
aaI-1
aa(lp403
(lp404
I9999
aF5.170162200927734
aF2.638277769088745
aF2.0422542095184326
aF1.9865338802337646
aF2.3950912952423096
aF4.0154314041137695
aI9999
aaI-1
aa(lp405
(lp406
I9999
aF5.064389228820801
aF2.5892882347106934
aF2.0058605670928955
aF1.9522541761398315
aF2.355348587036133
aF3.954190969467163
aI9999
aaI-1
aa(lp407
(lp408
I9999
aF4.930305480957031
aF2.527116060256958
aF1.9596620798110962
aF1.9087347984313965
aF2.3048930168151855
aF3.8764736652374268
aI9999
aaI-1
aa(lp409
(lp410
I9999
aF4.811337471008301
aF2.4688901901245117
aF1.915360450744629
aF1.8662102222442627
aF2.254431962966919
aF3.794647693634033
aI9999
aaI-1
aa(lp411
(lp412
I9999
aF4.696746826171875
aF2.415419816970825
aF1.8755297660827637
aF1.8286197185516357
aF2.2107560634613037
aF3.727083206176758
aI9999
aaI-1
aa(lp413
(lp414
I9999
aF4.587837219238281
aF2.364985942840576
aF1.8381032943725586
aF1.7934118509292603
aF2.1700212955474854
aF3.664715051651001
aI9999
aaI-1
aa(lp415
(lp416
I9999
aF4.508768081665039
aF2.327474594116211
aF1.8099621534347534
aF1.7667053937911987
aF2.138779401779175
aF3.6156628131866455
aI9999
aaI-1
aa(lp417
(lp418
I9999
aF4.461501121520996
aF2.3063504695892334
aF1.7945597171783447
aF1.752431035041809
aF2.122586965560913
aF3.59205961227417
aI9999
aaI-1
aa(lp419
(lp420
I9999
aF4.458641529083252
aF2.3050456047058105
aF1.7935987710952759
aF1.7515329122543335
aF2.1215569972991943
aF3.5905168056488037
aI9999
aaI-1
aa(lp421
(lp422
I9999
aF4.412651062011719
aF2.2880539894104004
aF1.782509684562683
aF1.742289662361145
aF2.112637519836426
aF3.583345413208008
aI9999
aaI-1
aa(lp423
(lp424
I9999
aF4.086123466491699
aF0.30049458146095276
aF1.661784052848816
aF1.6267013549804688
aF1.9759588241577148
aF0.2609018385410309
aI9999
aaI-1
aa(lp425
(lp426
I9999
aF0.2609018385410309
aF0.30049455165863037
aF1.0582715272903442
aF1.0366942882537842
aF1.2603813409805298
aF0.2609018385410309
aI9999
aaI-1
aa(lp427
(lp428
I9999
aF0.9129531979560852
aF0.4799993336200714
aF0.37606608867645264
aF0.36917614936828613
aF0.4499644935131073
aF0.7714104056358337
aI9999
aaI-1
aa(lp429
(lp430
I9999
aF1.334816575050354
aF0.6772809028625488
aF0.5231022834777832
aF0.5079754590988159
aF0.6112434267997742
aF1.0207091569900513
aI9999
aaI-1
aa(lp431
(lp432
I9999
aF2.3334760665893555
aF1.2168734073638916
aF0.9501999616622925
aF0.9303995966911316
aF1.1305345296859741
aF1.9258588552474976
aI9999
aaI-1
aa(lp433
(lp434
I9999
aF1.9163050651550293
aF0.9978914260864258
aF0.7787522077560425
aF0.7621842622756958
aF0.9256436228752136
aF1.5750987529754639
aI9999
aaI-1
aa(lp435
(lp436
I9999
aF1.8770705461502075
aF0.9767066240310669
aF0.7619807720184326
aF0.7455912232398987
aF0.9052345752716064
aF1.5394655466079712
aI9999
aaI-1
aa(lp437
(lp438
I9999
aF1.7710039615631104
aF0.9204837083816528
aF0.7177917957305908
aF0.7021090388298035
aF0.8520908355712891
aF1.4478561878204346
aI9999
aaI-1
aa(lp439
(lp440
I9999
aF1.6803581714630127
aF0.8728961944580078
aF0.6805333495140076
aF0.6655529737472534
aF0.8075649738311768
aF1.3716354370117188
aI9999
aaI-1
aa(lp441
(lp442
I9999
aF1.6124180555343628
aF0.8372801542282104
aF0.6526641845703125
aF0.6382212042808533
aF0.7742919325828552
aF1.3147388696670532
aI9999
aaI-1
aa(lp443
(lp444
I9999
aF1.540351152420044
aF0.7993329763412476
aF0.6229186058044434
aF0.6090105772018433
aF0.7386760711669922
aF1.25364351272583
aI9999
aaI-1
aa(lp445
(lp446
I9999
aF1.4868314266204834
aF0.7705403566360474
aF0.6001598834991455
aF0.586521327495575
aF0.7110555768013
aF1.2055708169937134
aI9999
aaI-1
aa(lp447
(lp448
I9999
aF1.4636421203613281
aF0.7592906355857849
aF0.5916394591331482
aF0.5783745050430298
aF0.7014377117156982
aF1.190166711807251
aI9999
aaI-1
aa(lp449
(lp450
I9999
aF1.4554184675216675
aF0.7549043893814087
aF0.5881838202476501
aF0.5749682188034058
aF0.697266161441803
aF1.1829471588134766
aI9999
aaI-1
aa(lp451
(lp452
I9999
aF1.4404335021972656
aF0.7456778287887573
aF0.5805383324623108
aF0.5671550035476685
aF0.6873036026954651
aF1.1643476486206055
aI9999
aaI-1
aa(lp453
(lp454
I9999
aF1.0688142776489258
aF0.30049455165863037
aF0.24103723466396332
aF0.24103723466396332
aF0.30049455165863037
aF0.8724189400672913
aI9999
aaI-1
aa(lp455
(lp456
I9999
aF0.6154553294181824
aF0.329632043838501
aF0.2602609097957611
aF0.25702616572380066
aF0.31553831696510315
aF0.5492545962333679
aI9999
aaI-1
aa(lp457
(lp458
I9999
aF0.5655999779701233
aF0.31415441632270813
aF0.25198888778686523
aF0.251984566450119
aF0.3141355514526367
aF0.5655117034912109
aI9999
aaI-1
aa(lp459
(lp460
I9999
aF0.7412222623825073
aF0.407695472240448
aF0.32560837268829346
aF0.32447943091392517
aF0.40277862548828125
aF0.7181857824325562
aI9999
aaI-1
aa(lp461
(lp462
I9999
aF1.0872728824615479
aF0.5952783823013306
aF0.4744621515274048
aF0.47205811738967896
aF0.5848078727722168
aF1.038204312324524
aI9999
aaI-1
aa(lp463
(lp464
I9999
aF1.3196473121643066
aF0.7200780510902405
aF0.5730934739112854
aF0.5695292949676514
aF0.7045539617538452
aF1.2468791007995605
aI9999
aaI-1
aa(lp465
(lp466
I9999
aF1.1345195770263672
aF0.6173344254493713
aF0.4907277524471283
aF0.4872095286846161
aF0.6020101308822632
aF1.0626715421676636
aI9999
aaI-1
aa(lp467
(lp468
I9999
aF1.045328140258789
aF0.5681449770927429
aF0.4514007866382599
aF0.44798794388771057
aF0.5532793998718262
aF0.9756237268447876
aI9999
aaI-1
aa(lp469
(lp470
I9999
aF0.9702072739601135
aF0.5270389318466187
aF0.41864636540412903
aF0.41540682315826416
aF0.5129281878471375
aF0.9040389060974121
aI9999
aaI-1
aa(lp471
(lp472
I9999
aF0.830348014831543
aF0.4513339400291443
aF0.3586035966873169
aF0.3559010922908783
aF0.4395624101161957
aF0.7751519680023193
aI9999
aaI-1
aa(lp473
(lp474
I9999
aF0.5275383591651917
aF0.28973203897476196
aF0.23124545812606812
aF0.23032425343990326
aF0.28572002053260803
aF0.5087397694587708
aI9999
aaI-1
aa(lp475
(lp476
I9999
aF0.5744730234146118
aF0.31912413239479065
aF0.2559899687767029
aF0.2559973895549774
aF0.31915655732154846
aF0.5746249556541443
aI9999
aaI-1
aa(lp477
(lp478
I9999
aF0.6575146913528442
aF0.3706606328487396
aF0.2993047535419464
aF0.3009161651134491
aF0.37767887115478516
aF0.6904065012931824
aI9999
aaI-1
aa(lp479
(lp480
I9999
aF0.7257614135742188
aF0.421881765127182
aF0.34556686878204346
aF0.35153353214263916
aF0.44788825511932373
aF0.8482139706611633
aI9999
aaI-1
aa(lp481
(lp482
I9999
aF0.5834464430809021
aF0.3410494327545166
aF0.2801015079021454
aF0.28557246923446655
aF0.3649007976055145
aF0.6959131956100464
aI9999
aaI-1
aa(lp483
(lp484
I9999
aF0.5696926712989807
aF0.3297021687030792
aF0.26949700713157654
aF0.27367329597473145
aF0.3479022681713104
aF0.6553027629852295
aI9999
aaI-1
aa(lp485
(lp486
I9999
aF0.5679300427436829
aF0.3308490216732025
aF0.27128052711486816
aF0.2762017250061035
aF0.35230061411857605
aF0.6689897775650024
aI9999
aaI-1
aa(lp487
(lp488
F5.716064453125
aF0.5579843521118164
aF0.3273560404777527
aF0.2693270742893219
aF0.2749916911125183
aF0.35205578804016113
aF0.6745738983154297
aI9999
aaI-1
aa(lp489
(lp490
F5.603842735290527
aF0.5603624582290649
aF0.32921072840690613
aF0.2710358500480652
aF0.2768934667110443
aF0.35475364327430725
aF0.680983304977417
aI9999
aaI-1
aa(lp491
(lp492
I9999
aF1.1652743816375732
aF0.68699049949646
aF0.5665515661239624
aF0.5796226263046265
aF0.7439988851547241
aF1.4347864389419556
aI9999
aaI-1
aa(lp493
(lp494
I9999
aF2.4447555541992188
aF1.4583200216293335
aF1.2095961570739746
aF1.2435574531555176
aF1.6065418720245361
aF3.148580551147461
aI9999
aaI-1
aa(lp495
(lp496
I9999
aF2.268648386001587
aF1.3448822498321533
aF1.1120952367782593
aF1.1403459310531616
aF1.4681330919265747
aF2.8524622917175293
aI9999
aaI-1
aa(lp497
(lp498
I9999
aF2.2162508964538574
aF1.3113620281219482
aF1.083383321762085
aF1.1100420951843262
aF1.4276552200317383
aF2.766730546951294
aI9999
aaI-1
aa(lp499
(lp500
I9999
aF2.097982883453369
aF1.2405154705047607
aF1.024503469467163
aF1.0494102239608765
aF1.3491612672805786
aF2.612135887145996
aI9999
aaI-1
aa(lp501
(lp502
I9999
aF1.9086118936538696
aF1.1290169954299927
aF0.9326118230819702
aF0.9554506540298462
aF1.228644609451294
aF2.380157709121704
aI9999
aaI-1
aa(lp503
(lp504
I9999
aF0.2609018385410309
aF0.9868516325950623
aF0.8163834810256958
aF0.8374242186546326
aF0.30049455165863037
aF0.2609018385410309
aI9999
aaI-1
aa(lp505
(lp506
I9999
aF0.835515022277832
aF0.4942225515842438
aF0.40824031829833984
aF0.4182319641113281
aF0.5378080606460571
aF1.0418063402175903
aI9999
aaI-1
aa(lp507
(lp508
I9999
aF0.9413772821426392
aF0.5576962828636169
aF0.46101680397987366
aF0.47260013222694397
aF0.6082295775413513
aF1.1806854009628296
aI9999
aaI-1
aa(lp509
(lp510
I9999
aF0.8584953546524048
aF0.508510947227478
aF0.42032402753829956
aF0.4308554232120514
aF0.5544545650482178
aF1.0760554075241089
aI9999
aaI-1
aa(lp511
(lp512
I9999
aF0.8032756447792053
aF0.4763295650482178
aF0.3939371407032013
aF0.40399304032325745
aF0.5202017426490784
aF1.0111117362976074
aI9999
aaI-1
aa(lp513
(lp514
I9999
aF1.0392942428588867
aF0.6154535412788391
aF0.5086598992347717
aF0.5213519930839539
aF0.6708226203918457
aF1.3014637231826782
aI9999
aaI-1
aa(lp515
(lp516
I9999
aF1.670770287513733
aF0.9986240267753601
aF0.8291242122650146
aF0.8531239032745361
aF1.10338294506073
aF2.16863751411438
aI9999
aaI-1
aa(lp517
(lp518
I9999
aF1.5576587915420532
aF0.92181795835495
aF0.761620283126831
aF0.7804129123687744
aF1.0037974119186401
aF1.9457348585128784
aI9999
aaI-1
aa(lp519
(lp520
I9999
aF1.5817140340805054
aF0.9350060224533081
aF0.7720938920974731
aF0.7907786965370178
aF1.0165101289749146
aF1.9673861265182495
aI9999
aaI-1
aa(lp521
(lp522
I9999
aF1.6158232688903809
aF0.9555281400680542
aF0.7891850471496582
aF0.8084089756011963
aF1.039385437965393
aF2.012683153152466
aI9999
aaI-1
aa(lp523
(lp524
I9999
aF1.6365703344345093
aF0.9682413339614868
aF0.7998644113540649
aF0.8195039629936218
aF1.0539138317108154
aF2.0420870780944824
aI9999
aaI-1
aa(lp525
(lp526
I9999
aF1.6420080661773682
aF0.9698225259780884
aF0.8005118370056152
aF0.8195967674255371
aF1.0530681610107422
aF2.03580379486084
aI9999
aaI-1
aa(lp527
(lp528
I9999
aF1.6479843854904175
aF0.97318035364151
aF0.8032142519950867
aF0.8223037719726562
aF1.0564451217651367
aF2.041846513748169
aI9999
aaI-1
aa(lp529
(lp530
I9999
aF1.6673184633255005
aF0.9835066795349121
aF0.8112989068031311
aF0.8302019834518433
aF1.065953016281128
aF2.057161808013916
aI9999
aaI-1
aa(lp531
(lp532
I9999
aF1.7032556533813477
aF1.0051623582839966
aF0.8293464779853821
aF0.8488287329673767
aF1.0901371240615845
aF2.105116605758667
aI9999
aaI-1
aa(lp533
(lp534
I9999
aF1.738945484161377
aF1.0256816148757935
aF0.8460587859153748
aF0.8657454252243042
aF1.1115453243255615
aF2.144937515258789
aI9999
aaI-1
aa(lp535
(lp536
I9999
aF1.9994783401489258
aF1.1770099401474
aF0.9699486494064331
aF0.9917101263999939
aF1.2719134092330933
aF2.4479191303253174
aI9999
aaI-1
aa(lp537
(lp538
I9999
aF2.4223110675811768
aF1.4287307262420654
aF1.1785155534744263
aF1.2059309482574463
aF1.548303484916687
aF2.9876887798309326
aI9999
aaI-1
aa(lp539
(lp540
I9999
aF2.3753931522369385
aF1.3992369174957275
aF1.1534578800201416
aF1.1796612739562988
aF1.513515830039978
aF2.915505886077881
aI9999
aaI-1
aa(lp541
(lp542
I9999
aF2.459177255630493
aF1.4454669952392578
aF1.1903212070465088
aF1.2162896394729614
aF1.5587084293365479
aF2.9940171241760254
aI9999
aaI-1
aa(lp543
(lp544
I9999
aF2.5058064460754395
aF1.473006010055542
aF1.2130515575408936
aF1.2395607233047485
aF1.5886064767837524
aF3.0518031120300293
aI9999
aaI-1
aa(lp545
(lp546
I9999
aF2.561814546585083
aF1.506129264831543
aF1.2404087781906128
aF1.2675843238830566
aF1.624635934829712
aF3.121561050415039
aI9999
aaI-1
aa(lp547
(lp548
I9999
aF2.610628128051758
aF1.5359958410263062
aF1.2654725313186646
aF1.2935985326766968
aF1.6586521863937378
aF3.1901144981384277
aI9999
aaI-1
aa(lp549
(lp550
I9999
aF2.641265392303467
aF1.5530240535736084
aF1.2791036367416382
aF1.307190179824829
aF1.675504207611084
aF3.219801425933838
aI9999
aaI-1
aa(lp551
(lp552
I9999
aF2.659259080886841
aF1.5643001794815063
aF1.2886687517166138
aF1.3172043561935425
aF1.688741683959961
aF3.2471423149108887
aI9999
aaI-1
aa(lp553
(lp554
I9999
aF2.6435749530792236
aF1.5594345331192017
aF1.2864084243774414
aF1.3164023160934448
aF1.6902540922164917
aF3.2621567249298096
aI9999
aaI-1
aa(lp555
(lp556
I9999
aF2.6184351444244385
aF1.5447019338607788
aF1.2742942571640015
aF1.3040393590927124
aF1.6744370460510254
aF3.2319023609161377
aI9999
aaI-1
aa(lp557
(lp558
I9999
aF2.57861328125
aF1.522927165031433
aF1.2570220232009888
aF1.2869611978530884
aF1.6535167694091797
aF3.196359634399414
aI9999
aaI-1
aa(lp559
(lp560
I9999
aF2.5576725006103516
aF1.5118099451065063
aF1.2483495473861694
aF1.2785183191299438
aF1.6434069871902466
aF3.180363893508911
aI9999
aaI-1
aa(lp561
(lp562
I9999
aF2.5832486152648926
aF1.5261820554733276
aF1.2599167823791504
aF1.2901051044464111
aF1.6578608751296997
aF3.2062206268310547
aI9999
aaI-1
aa(lp563
(lp564
I9999
aF2.6346561908721924
aF1.557220220565796
aF1.2858084440231323
aF1.316849708557129
aF1.6926226615905762
aF3.2753403186798096
aI9999
aaI-1
aa(lp565
(lp566
I9999
aF2.674457311630249
aF1.5837533473968506
aF1.3089327812194824
aF1.3415871858596802
aF1.7262070178985596
aF3.3489651679992676
aI9999
aaI-1
aa(lp567
(lp568
I9999
aF2.6976773738861084
aF1.5980119705200195
aF1.3209229707717896
aF1.3540551662445068
aF1.7425527572631836
aF3.3821465969085693
aI9999
aaI-1
aa(lp569
(lp570
I9999
aF2.6864254474639893
aF1.594722867012024
aF1.3195749521255493
aF1.3538661003112793
aF1.744338870048523
aF3.3954918384552
aI9999
aaI-1
aa(lp571
(lp572
I9999
aF2.687551259994507
aF1.5965592861175537
aF1.321569800376892
aF1.3563271760940552
aF1.7482157945632935
aF3.4064908027648926
aI9999
aaI-1
aa(lp573
(lp574
I9999
aF2.7023913860321045
aF1.6059457063674927
aF1.3295719623565674
aF1.364742398262024
aF1.7594082355499268
aF3.42999267578125
aI9999
aaI-1
aa(lp575
(lp576
I9999
aF2.8317930698394775
aF1.6799750328063965
aF1.389695167541504
aF1.4254404306411743
aF1.8359295129776
aF3.5707249641418457
aI9999
aaI-1
aa(lp577
(lp578
I9999
aF3.0713531970977783
aF1.8234838247299194
aF1.5089715719223022
aF1.5482763051986694
aF1.9949758052825928
aF3.8841395378112793
aI9999
aaI-1
aa(lp579
(lp580
I9999
aF3.3166184425354004
aF1.971637487411499
aF1.632605791091919
aF1.6760326623916626
aF2.1611297130584717
aF4.215166091918945
aI9999
aaI-1
aa(lp581
(lp582
I9999
aF3.3068594932556152
aF1.9683904647827148
aF1.63096022605896
aF1.6752547025680542
aF2.161684274673462
aF4.223907947540283
aI9999
aaI-1
aa(lp583
(lp584
I9999
aF3.302340030670166
aF1.9676285982131958
aF1.6311182975769043
aF1.67610764503479
aF2.1639671325683594
aF4.234203815460205
aI9999
aaI-1
aa(lp585
(lp586
I9999
aF3.284860134124756
aF1.9607117176055908
aF1.6268203258514404
aF1.6729503870010376
aF2.162051200866699
aF4.241171836853027
aI9999
aaI-1
aa(lp587
(lp588
I9999
aF3.2510831356048584
aF1.942786693572998
aF1.6128684282302856
aF1.6594113111495972
aF2.145944118499756
aF4.216506004333496
aI9999
aaI-1
aa(lp589
(lp590
I9999
aF3.221907138824463
aF1.9272714853286743
aF1.6007797718048096
aF1.6476702690124512
aF2.131960391998291
aF4.195030689239502
aI9999
aaI-1
aa(lp591
(lp592
I9999
aF3.175037384033203
aF1.9022526741027832
aF1.5812476873397827
aF1.6286661624908447
aF2.109269142150879
aF4.159924030303955
aI9999
aaI-1
aa(lp593
(lp594
I9999
aF3.181377649307251
aF1.9052343368530273
aF1.583388090133667
aF1.63057279586792
aF2.1112239360809326
aF4.161189556121826
aI9999
aaI-1
aa(lp595
(lp596
I9999
aF3.2045023441314697
aF1.9181281328201294
aF1.593709111213684
aF1.640853762626648
aF2.1239354610443115
aF4.183229446411133
aI9999
aaI-1
aa(lp597
(lp598
I9999
aF3.235804796218872
aF1.9365934133529663
aF1.6089390516281128
aF1.6564353704452515
aF2.1439340114593506
aF4.221761703491211
aI9999
aaI-1
aa(lp599
(lp600
I9999
aF3.6575024127960205
aF2.186406373977661
aF1.8154269456863403
aF1.8680872917175293
aF2.416271686553955
aI9999
aI9999
aaI-1
aa(lp601
(lp602
I9999
aF4.47170352935791
aF2.6867730617523193
aF2.2365615367889404
aF2.3064446449279785
aF2.991926670074463
aI9999
aI9999
aaI-1
aa(lp603
(lp604
I9999
aF4.35195255279541
aF2.6082334518432617
aF2.168449640274048
aF2.233790874481201
aF2.8935019969940186
aI9999
aI9999
aaI-1
aa(lp605
(lp606
I9999
aF4.4894304275512695
aF2.6891849040985107
aF2.235154628753662
aF2.3019793033599854
aF2.980919361114502
aI9999
aI9999
aaI-1
aa(lp607
(lp608
I9999
aF4.575638294219971
aF2.74052095413208
aF2.277698040008545
aF2.345684051513672
aF3.0373237133026123
aI9999
aI9999
aaI-1
aa(lp609
(lp610
I9999
aF4.641105651855469
aF2.7780940532684326
aF2.308248519897461
aF2.3765501976013184
aF3.076261520385742
aI9999
aI9999
aaI-1
aa(lp611
(lp612
I9999
aF4.668905258178711
aF2.7955331802368164
aF2.323068380355835
aF2.392099380493164
aF3.096890687942505
aI9999
aI9999
aaI-1
aa(lp613
(lp614
I9999
aF4.704183101654053
aF2.815488576889038
aF2.3391687870025635
aF2.4082534313201904
aF3.1170711517333984
aI9999
aI9999
aaI-1
aa(lp615
(lp616
I9999
aF4.819417476654053
aF2.8830583095550537
aF2.3947298526763916
aF2.464946985244751
aF3.1895751953125
aI9999
aI9999
aaI-1
aa(lp617
(lp618
I9999
aF5.011499404907227
aF3.000075578689575
aF2.4927990436553955
aF2.566659450531006
aF3.322512626647949
aI9999
aI9999
aaI-1
aa(lp619
(lp620
I9999
aF5.045239448547363
aF3.018402338027954
aF2.507254123687744
aF2.580862522125244
aF3.3397254943847656
aI9999
aI9999
aaI-1
aa(lp621
(lp622
I9999
aF5.111071586608887
aF3.0543487071990967
aF2.535696268081665
aF2.608893871307373
aF3.3738536834716797
aI9999
aI9999
aaI-1
aa(lp623
(lp624
I9999
aF5.179961204528809
aF3.091273307800293
aF2.564606189727783
aF2.6371073722839355
aF3.4077088832855225
aI9999
aI9999
aaI-1
aa(lp625
(lp626
I9999
aF5.248371124267578
aF3.1281943321228027
aF2.5936365127563477
aF2.665555953979492
aF3.442065477371216
aI9999
aI9999
aaI-1
aa(lp627
(lp628
I9999
aF5.306188583374023
aF3.1626923084259033
aF2.6222543716430664
aF2.6949806213378906
aF3.4800846576690674
aI9999
aI9999
aaI-1
aa(lp629
(lp630
I9999
aF5.342670917510986
aF3.1833434104919434
aF2.6389286518096924
aF2.7117249965667725
aF3.501035213470459
aI9999
aI9999
aaI-1
aa(lp631
(lp632
I9999
aF5.402556896209717
aF3.216200828552246
aF2.6650118827819824
aF2.7375175952911377
aF3.532606363296509
aI9999
aI9999
aaI-1
aa(lp633
(lp634
I9999
aF5.485762119293213
aF3.264357805252075
aF2.7043533325195312
aF2.777438163757324
aF3.5832812786102295
aI9999
aI9999
aaI-1
aa(lp635
(lp636
I9999
aF5.555593013763428
aF3.300489902496338
aF2.7320783138275146
aF2.803985118865967
aF3.614241600036621
aI9999
aI9999
aaI-1
aa(lp637
(lp638
I9999
aF5.587311267852783
aF3.3202881813049316
aF2.7488558292388916
aF2.8215434551239014
aF3.6374521255493164
aI9999
aI9999
aaI1
aa(lp639
(lp640
I9999
aF5.802900314331055
aF3.444274425506592
aF2.849825143814087
aF2.923720121383667
aF3.7666831016540527
aI9999
aI9999
aaI1
aa(lp641
(lp642
I9999
aI9999
aF3.6188242435455322
aF2.9990997314453125
aF3.081102132797241
aF3.9766788482666016
aI9999
aI9999
aaI1
aa(lp643
(lp644
I9999
aI9999
aF3.572617292404175
aF2.960297107696533
aF3.0407936573028564
aF3.9238929748535156
aI9999
aI9999
aaI1
aa(lp645
(lp646
I9999
aI9999
aF3.594593048095703
aF2.981452465057373
aF3.0651049613952637
aF3.9596872329711914
aI9999
aI9999
aaI1
aa(lp647
(lp648
I9999
aI9999
aF3.626904249191284
aF3.009559154510498
aF3.095146656036377
aF4.0004658699035645
aI9999
aI9999
aaI1
aa(lp649
(lp650
I9999
aI9999
aF3.6718411445617676
aF3.048222780227661
aF3.1361184120178223
aF4.05549955368042
aI9999
aI9999
aaI1
aa(lp651
(lp652
I9999
aI9999
aF3.6905839443206787
aF3.0647852420806885
aF3.1540398597717285
aF4.080193042755127
aI9999
aI9999
aaI1
aa(lp653
(lp654
I9999
aI9999
aF3.705216646194458
aF3.079098701477051
aF3.1706743240356445
aF4.1049957275390625
aI9999
aI9999
aaI1
aa(lp655
(lp656
I9999
aI9999
aF3.727207899093628
aF3.0998895168304443
aF3.194303512573242
aF4.139425754547119
aI9999
aI9999
aaI1
aa(lp657
(lp658
I9999
aI9999
aF3.7394750118255615
aF3.111640214920044
aF3.2077808380126953
aF4.159261703491211
aI9999
aI9999
aaI1
aa(lp659
(lp660
I9999
aI9999
aF3.7343637943267822
aF3.1082746982574463
aF3.20509672164917
aF4.1571431159973145
aI9999
aI9999
aaI1
aa(lp661
(lp662
I9999
aI9999
aF3.8060343265533447
aF3.1679208278656006
aF3.2665932178497314
aF4.236893653869629
aI9999
aI9999
aaI1
aa(lp663
(lp664
I9999
aI9999
aF3.891385316848755
aF3.2545993328094482
aF3.3699352741241455
aF4.395392417907715
aI9999
aI9999
aaI1
aa(lp665
(lp666
I9999
aI9999
aF3.882838249206543
aF3.2386298179626465
aF3.3455302715301514
aF4.3497748374938965
aI9999
aI9999
aaI1
aa(lp667
(lp668
I9999
aI9999
aF3.870452404022217
aF3.2304470539093018
aF3.338991641998291
aF4.344620704650879
aI9999
aI9999
aaI1
aa(lp669
(lp670
I9999
aI9999
aF3.842262029647827
aF3.2101504802703857
aF3.3209004402160645
aF4.326144218444824
aI9999
aI9999
aaI1
aa(lp671
(lp672
I9999
aI9999
aF3.8041796684265137
aF3.181225061416626
aF3.293566942214966
aF4.2950921058654785
aI9999
aI9999
aaI1
aa(lp673
(lp674
I9999
aI9999
aF3.7711150646209717
aF3.1564114093780518
aF3.2704238891601562
aF4.26940393447876
aI9999
aI9999
aaI1
aa(lp675
(lp676
I9999
aI9999
aF3.8632123470306396
aF3.2330644130706787
aF3.3494577407836914
aF4.371893882751465
aI9999
aI9999
aaI1
aa(lp677
(lp678
I9999
aI9999
aF4.071678638458252
aF3.4163808822631836
aF3.547365427017212
aF4.644394874572754
aI9999
aI9999
aaI1
aa(lp679
(lp680
I9999
aI9999
aF4.024528980255127
aF3.3718130588531494
aF3.496572494506836
aF4.569879531860352
aI9999
aI9999
aaI1
aa(lp681
(lp682
I9999
aI9999
aF4.020468711853027
aF3.3692474365234375
aF3.4946653842926025
aF4.568722724914551
aI9999
aI9999
aaI1
aa(lp683
(lp684
I9999
aI9999
aF3.9967942237854004
aF3.3530659675598145
aF3.4811863899230957
aF4.556972980499268
aI9999
aI9999
aaI1
aa(lp685
(lp686
I9999
aI9999
aF3.9591689109802246
aF3.3225295543670654
aF3.4504144191741943
aF4.5183491706848145
aI9999
aI9999
aaI1
aa(lp687
(lp688
I9999
aI9999
aF3.9230504035949707
aF3.293933153152466
aF3.4222700595855713
aF4.484262466430664
aI9999
aI9999
aaI1
aa(lp689
(lp690
I9999
aI9999
aF3.905287504196167
aF3.279601573944092
aF3.4079084396362305
aF4.466386795043945
aI9999
aI9999
aaI1
aa(lp691
(lp692
I9999
aI9999
aF3.891268491744995
aF3.2688028812408447
aF3.397571563720703
aF4.454418182373047
aI9999
aI9999
aaI1
aa(lp693
(lp694
I9999
aI9999
aF3.8862502574920654
aF3.2665441036224365
aF3.3970015048980713
aF4.456850528717041
aI9999
aI9999
aaI1
aa(lp695
(lp696
I9999
aI9999
aF3.8833158016204834
aF3.2647929191589355
aF3.3958308696746826
aF4.456480026245117
aI9999
aI9999
aaI1
aa(lp697
(lp698
I9999
aI9999
aF3.8592495918273926
aF3.2454216480255127
aF3.3764662742614746
aF4.432472229003906
aI9999
aI9999
aaI1
aa(lp699
(lp700
I9999
aI9999
aF3.8455910682678223
aF3.233891010284424
aF3.364429473876953
aF4.416598320007324
aI9999
aI9999
aaI1
aa(lp701
(lp702
I9999
aI9999
aF3.855091094970703
aF3.2399826049804688
aF3.369041919708252
aF4.419564247131348
aI9999
aI9999
aaI1
aa(lp703
(lp704
I9999
aI9999
aF3.8602166175842285
aF3.2428483963012695
aF3.3707127571105957
aF4.419415473937988
aI9999
aI9999
aaI1
aa(lp705
(lp706
I9999
aI9999
aF3.8704867362976074
aF3.2500386238098145
aF3.376882791519165
aF4.425178050994873
aI9999
aI9999
aaI1
aa(lp707
(lp708
I9999
aI9999
aF4.024679660797119
aF3.3739261627197266
aF3.5005555152893066
aF4.578263759613037
aI9999
aI9999
aaI1
aa(lp709
(lp710
I9999
aI9999
aF4.251747131347656
aF3.568039655685425
aF3.705355167388916
aF4.8521623611450195
aI9999
aI9999
aaI1
aa(lp711
(lp712
I9999
aI9999
aF4.270190715789795
aF3.5746185779571533
aF3.7041709423065186
aF4.836408615112305
aI9999
aI9999
aaI1
aa(lp713
(lp714
I9999
aI9999
aF4.318822860717773
aF3.6133604049682617
aF3.742548942565918
aF4.883398532867432
aI9999
aI9999
aaI1
aa(lp715
(lp716
I9999
aI9999
aF4.369618892669678
aF3.6540963649749756
aF3.78316068649292
aF4.933604717254639
aI9999
aI9999
aaI1
aa(lp717
(lp718
I9999
aI9999
aF4.413522720336914
aF3.689687967300415
aF3.819003105163574
aF4.97857666015625
aI9999
aI9999
aaI1
aa(lp719
(lp720
I9999
aI9999
aF4.4323577880859375
aF3.706601858139038
aF3.8375566005706787
aF5.004605770111084
aI9999
aI9999
aaI1
aa(lp721
(lp722
I9999
aI9999
aF4.447851181030273
aF3.718292474746704
aF3.8485260009765625
aF5.016915798187256
aI9999
aI9999
aaI1
aa(lp723
(lp724
I9999
aI9999
aF4.443923473358154
aF3.716540813446045
aF3.84808611869812
aF5.018758773803711
aI9999
aI9999
aaI-1
aa(lp725
(lp726
I9999
aI9999
aF4.420637607574463
aF3.6974470615386963
aF3.82865834236145
aF4.994022369384766
aI9999
aI9999
aaI-1
aa(lp727
(lp728
I9999
aI9999
aF4.412099361419678
aF3.6895432472229004
aF3.8197901248931885
aF4.981251239776611
aI9999
aI9999
aaI-1
aa(lp729
(lp730
I9999
aI9999
aF4.5626091957092285
aF3.8107895851135254
aF3.9411895275115967
aF5.132314682006836
aI9999
aI9999
aaI-1
aa(lp731
(lp732
I9999
aI9999
aF4.786328315734863
aF4.024545669555664
aF4.186595916748047
aF5.49515962600708
aI9999
aI9999
aaI-1
aa(lp733
(lp734
I9999
aI9999
aF4.819089412689209
aF4.0449419021606445
aF4.201327323913574
aF5.502915382385254
aI9999
aI9999
aaI-1
aa(lp735
(lp736
I9999
aI9999
aF4.831472396850586
aF4.057214260101318
aF4.215777397155762
aF5.524879455566406
aI9999
aI9999
aaI-1
aa(lp737
(lp738
I9999
aI9999
aF4.836299419403076
aF4.062963008880615
aF4.223289489746094
aF5.537471294403076
aI9999
aI9999
aaI-1
aa(lp739
(lp740
I9999
aI9999
aF4.848496913909912
aF4.072203159332275
aF4.231980323791504
aF5.547234058380127
aI9999
aI9999
aaI-1
aa(lp741
(lp742
I9999
aI9999
aF4.864161014556885
aF4.087467193603516
aF4.249756813049316
aF5.573956489562988
aI9999
aI9999
aaI-1
aa(lp743
(lp744
I9999
aI9999
aF4.882604122161865
aF4.103347301483154
aF4.2666144371032715
aF5.5966877937316895
aI9999
aI9999
aaI-1
aa(lp745
(lp746
I9999
aI9999
aF4.8288068771362305
aF0.24103723466396332
aF0.24103723466396332
aF5.551630973815918
aI9999
aI9999
aaI-1
aa(lp747
(lp748
I9999
aI9999
aF4.682450771331787
aF3.937107801437378
aF4.09555196762085
aF5.37550687789917
aI9999
aI9999
aaI-1
aa(lp749
(lp750
I9999
aI9999
aF4.711367607116699
aF3.9618067741394043
aF4.12159538269043
aF5.410317897796631
aI9999
aI9999
aaI-1
aa(lp751
(lp752
I9999
aI9999
aF0.30049455165863037
aF0.24103723466396332
aF0.24103723466396332
aF0.30049455165863037
aI9999
aI9999
aaI-1
aa(lp753
(lp754
I9999
aI9999
aF4.285670280456543
aF3.605706214904785
aF3.752835988998413
aF4.9293131828308105
aI9999
aI9999
aaI1
aa(lp755
(lp756
I9999
aI9999
aF4.31400203704834
aF3.632399082183838
aF3.7832250595092773
aF4.973917484283447
aI9999
aI9999
aaI1
aa(lp757
(lp758
I9999
aI9999
aF4.28857421875
aF3.6120314598083496
aF3.7629644870758057
aF4.9489970207214355
aI9999
aI9999
aaI1
aa(lp759
(lp760
I9999
aI9999
aF4.280304908752441
aF3.6058127880096436
aF3.7571685314178467
aF4.9426045417785645
aI9999
aI9999
aaI1
aa(lp761
(lp762
I9999
aI9999
aF4.288992881774902
aF3.6131694316864014
aF3.7648682594299316
aF4.952795505523682
aI9999
aI9999
aaI1
aa(lp763
(lp764
I9999
aI9999
aF4.317648410797119
aF3.636995315551758
aF3.7894070148468018
aF4.984559059143066
aI9999
aI9999
aaI1
aa(lp765
(lp766
I9999
aI9999
aF4.344257831573486
aF3.6579883098602295
aF3.809980630874634
aF5.009281158447266
aI9999
aI9999
aaI1
aa(lp767
(lp768
I9999
aI9999
aF4.38297176361084
aF3.6890246868133545
aF3.840881109237671
aF5.047343730926514
aI9999
aI9999
aaI1
aa(lp769
(lp770
I9999
aI9999
aF4.438520431518555
aF3.737144947052002
aF3.8922300338745117
aF5.117067337036133
aI9999
aI9999
aaI-1
aa(lp771
(lp772
I9999
aI9999
aF4.464295387268066
aF3.7579610347747803
aF3.9131011962890625
aF5.1430511474609375
aI9999
aI9999
aaI-1
aa(lp773
(lp774
I9999
aI9999
aF4.498846054077148
aF3.7862579822540283
aF3.941848039627075
aF5.179542541503906
aI9999
aI9999
aaI-1
aa(lp775
(lp776
I9999
aI9999
aF4.522019386291504
aF3.8059444427490234
aF3.9625110626220703
aF5.206994533538818
aI9999
aI9999
aaI-1
aa(lp777
(lp778
I9999
aI9999
aF4.460516929626465
aF3.7566123008728027
aF3.913370370864868
aF5.14641809463501
aI9999
aI9999
aaI-1
aa(lp779
(lp780
I9999
aI9999
aF4.2795634269714355
aF3.6322059631347656
aF3.8097305297851562
aF5.057657241821289
aI9999
aI9999
aaI1
aa(lp781
(lp782
I9999
aI9999
aF4.301826000213623
aF3.6445155143737793
aF3.8165135383605957
aF5.055377006530762
aI9999
aI9999
aaI1
aa(lp783
(lp784
I9999
aI9999
aF4.275399684906006
aF3.6232264041900635
aF3.795241594314575
aF5.029078483581543
aI9999
aI9999
aaI1
aa(lp785
(lp786
I9999
aI9999
aF4.257562637329102
aF3.607509136199951
aF3.7782199382781982
aF5.005496501922607
aI9999
aI9999
aaI1
aa(lp787
(lp788
I9999
aI9999
aF4.253711700439453
aF3.6056666374206543
aF3.777611255645752
aF5.0071210861206055
aI9999
aI9999
aaI1
aa(lp789
(lp790
I9999
aI9999
aF4.251641750335693
aF3.602773666381836
aF3.773521661758423
aF4.999752521514893
aI9999
aI9999
aaI1
aa(lp791
(lp792
I9999
aI9999
aF4.2659010887146
aF3.6170260906219482
aF3.790468454360962
aF5.025923728942871
aI9999
aI9999
aaI1
aa(lp793
(lp794
I9999
aI9999
aF4.807545185089111
aF3.7410435676574707
aF3.6534547805786133
aF4.425490379333496
aI9999
aI9999
aaI1
aa(lp795
(lp796
I9999
aI9999
aF5.473049163818359
aF3.903817892074585
aF3.5852510929107666
aF4.056911468505859
aI9999
aI9999
aaI1
aa(lp797
(lp798
I9999
aI9999
aF5.424355506896973
aF3.85528826713562
aF3.5324294567108154
aF3.987483024597168
aI9999
aI9999
aaI1
aa(lp799
(lp800
I9999
aI9999
aF4.633493900299072
aF3.630826950073242
aF3.564769744873047
aF4.345539093017578
aI9999
aI9999
aaI1
aa(lp801
(lp802
I9999
aF5.268720626831055
aF3.7947769165039062
aF3.5075483322143555
aF3.995723009109497
aI9999
aI9999
aI9999
aaI1
aa(lp803
(lp804
I9999
aF5.80372953414917
aF3.962482213973999
aF3.5398662090301514
aF3.895144462585449
aF5.550455093383789
aI9999
aI9999
aaI1
aa(lp805
(lp806
I9999
aI9999
aF4.1372480392456055
aF3.5922155380249023
aF3.8465778827667236
aF5.259732723236084
aI9999
aI9999
aaI1
aa(lp807
(lp808
I9999
aI9999
aF4.29225492477417
aF3.6208784580230713
aF3.7774498462677
aF4.977573871612549
aI9999
aI9999
aaI1
aa(lp809
(lp810
I9999
aI9999
aF4.489962100982666
aF3.660931348800659
aF3.7099921703338623
aF4.703731060028076
aI9999
aI9999
aaI1
aa(lp811
(lp812
I9999
aI9999
aF4.452371597290039
aF3.631469249725342
aF3.6811304092407227
aF4.668760299682617
aI9999
aI9999
aaI1
aa(lp813
(lp814
I9999
aI9999
aF4.426972389221191
aF3.6098358631134033
aF3.658432722091675
aF4.638720512390137
aI9999
aI9999
aaI1
aa(lp815
(lp816
I9999
aI9999
aF4.436532020568848
aF3.617675304412842
aF3.666414737701416
aF4.64890193939209
aI9999
aI9999
aaI1
aa(lp817
(lp818
I9999
aI9999
aF4.4439520835876465
aF3.6314897537231445
aF3.686943531036377
aF4.685612201690674
aI9999
aI9999
aaI1
aa(lp819
(lp820
I9999
aI9999
aF4.497411251068115
aF3.6650991439819336
aF3.7126212120056152
aF4.704468727111816
aI9999
aI9999
aaI1
aa(lp821
(lp822
I9999
aI9999
aF4.5702972412109375
aF3.7282650470733643
aF3.7797632217407227
aF4.794693470001221
aI9999
aI9999
aaI-1
aa(lp823
(lp824
I9999
aI9999
aF4.560946464538574
aF3.720585346221924
aF3.7719340324401855
aF4.784690856933594
aI9999
aI9999
aaI-1
aa(lp825
(lp826
I9999
aI9999
aF4.580729961395264
aF3.7365663051605225
aF3.788003921508789
aF4.804860591888428
aI9999
aI9999
aaI-1
aa(lp827
(lp828
I9999
aI9999
aF4.615513324737549
aF3.765869379043579
aF3.8184897899627686
aF4.844802379608154
aI9999
aI9999
aaI-1
aa(lp829
(lp830
I9999
aI9999
aF4.635204315185547
aF3.7832553386688232
aF3.8372271060943604
aF4.870386123657227
aI9999
aI9999
aaI-1
aa(lp831
(lp832
I9999
aI9999
aF4.646824836730957
aF3.7946510314941406
aF3.850390911102295
aF4.889720439910889
aI9999
aI9999
aaI-1
aa(lp833
(lp834
I9999
aI9999
aF4.626613616943359
aF3.757362127304077
aF3.795254707336426
aF4.791684150695801
aI9999
aI9999
aaI-1
aa(lp835
(lp836
I9999
aI9999
aF3.661811590194702
aF2.986316680908203
aF3.026860475540161
aF3.838472604751587
aI9999
aI9999
aaI1
aa(lp837
(lp838
I9999
aI9999
aF3.8680880069732666
aF3.166121006011963
aF3.2188730239868164
aF4.0980024337768555
aI9999
aI9999
aaI1
aa(lp839
(lp840
I9999
aI9999
aF3.751938581466675
aF3.0704729557037354
aF3.1211435794830322
aF3.9727776050567627
aI9999
aI9999
aaI1
aa(lp841
(lp842
I9999
aI9999
aF3.7138330936431885
aF3.0390264987945557
aF3.088956356048584
aF3.9314427375793457
aI9999
aI9999
aaI1
aa(lp843
(lp844
I9999
aI9999
aF3.682323455810547
aF3.0120134353637695
aF3.0604617595672607
aF3.8934688568115234
aI9999
aI9999
aaI1
aa(lp845
(lp846
I9999
aI9999
aF3.664043664932251
aF2.9959256649017334
aF3.043156623840332
aF3.8698787689208984
aI9999
aI9999
aaI1
aa(lp847
(lp848
I9999
aI9999
aF3.842308521270752
aF3.1424951553344727
aF3.192720890045166
aF4.0611982345581055
aI9999
aI9999
aaI1
aa(lp849
(lp850
I9999
aI9999
aF4.41330623626709
aF3.6002907752990723
aF3.650099277496338
aF4.630339622497559
aI9999
aI9999
aaI1
aa(lp851
(lp852
I9999
aI9999
aF5.222405910491943
aF4.273159980773926
aF4.3430867195129395
aF5.527166366577148
aI9999
aI9999
aaI-1
aa(lp853
(lp854
I9999
aI9999
aF5.147421360015869
aF4.207182884216309
aF4.272130966186523
aF5.430461406707764
aI9999
aI9999
aaI-1
aa(lp855
(lp856
I9999
aI9999
aF5.223392486572266
aF4.267870903015137
aF4.3325724601745605
aF5.505349636077881
aI9999
aI9999
aaI-1
aa(lp857
(lp858
I9999
aI9999
aF5.286270618438721
aF4.317178726196289
aF4.380887508392334
aF5.563892841339111
aI9999
aI9999
aaI-1
aa(lp859
(lp860
I9999
aI9999
aF5.340232849121094
aF4.361152172088623
aF4.42542839050293
aF5.620328903198242
aI9999
aI9999
aaI-1
aa(lp861
(lp862
I9999
aI9999
aF5.4010539054870605
aF4.412199974060059
aF4.478388786315918
aF5.689488410949707
aI9999
aI9999
aaI-1
aa(lp863
(lp864
I9999
aI9999
aF5.447873592376709
aF4.452576637268066
aF4.5211639404296875
aF5.746771335601807
aI9999
aI9999
aaI-1
aa(lp865
(lp866
I9999
aI9999
aF5.472187519073486
aF4.4715776443481445
aF4.539723873138428
aF5.769159317016602
aI9999
aI9999
aaI-1
aa(lp867
(lp868
I9999
aI9999
aF5.492542743682861
aF4.489522457122803
aF4.559048175811768
aF5.795530319213867
aI9999
aI9999
aaI-1
aa(lp869
(lp870
I9999
aI9999
aF5.5076985359191895
aF4.503294467926025
aF4.57420015335083
aF5.816708087921143
aI9999
aI9999
aaI-1
aa(lp871
(lp872
I9999
aI9999
aF5.513305187225342
aF4.510104656219482
aF4.582996845245361
aF5.830983638763428
aI9999
aI9999
aaI-1
aa(lp873
(lp874
I9999
aI9999
aF5.519979953765869
aF4.513950824737549
aF4.585542678833008
aF5.8319830894470215
aI9999
aI9999
aaI-1
aa(lp875
(lp876
I9999
aI9999
aF5.516693592071533
aF4.513354778289795
aF4.586703300476074
aF5.83636474609375
aI9999
aI9999
aaI-1
aa(lp877
(lp878
I9999
aI9999
aF5.515565872192383
aF4.51272439956665
aF4.586309909820557
aF5.836270332336426
aI9999
aI9999
aaI-1
aa(lp879
(lp880
I9999
aI9999
aF5.501757621765137
aF4.503024101257324
aF4.577802658081055
aF5.827669143676758
aI9999
aI9999
aaI-1
aa(lp881
(lp882
I9999
aI9999
aF5.471590995788574
aF4.479755401611328
aF4.555350303649902
aF5.801070690155029
aI9999
aI9999
aaI-1
aa(lp883
(lp884
I9999
aI9999
aF5.644710063934326
aF4.613794803619385
aF4.685154914855957
aF5.955691814422607
aI9999
aI9999
aaI-1
aa(lp885
(lp886
I9999
aI9999
aF5.88939094543457
aF4.818611145019531
aF4.897210597991943
aI9999
aI9999
aI9999
aaI-1
aa(lp887
(lp888
I9999
aI9999
aF5.995810031890869
aF4.919172763824463
aF5.010870933532715
aI9999
aI9999
aI9999
aaI-1
aa(lp889
(lp890
I9999
aI9999
aI9999
aF4.933404922485352
aF5.011547088623047
aI9999
aI9999
aI9999
aaI-1
aa(lp891
(lp892
I9999
aI9999
aI9999
aF4.963325023651123
aF5.0412421226501465
aI9999
aI9999
aI9999
aaI-1
aa(lp893
(lp894
I9999
aI9999
aI9999
aF4.995372295379639
aF5.072622299194336
aI9999
aI9999
aI9999
aaI-1
aa(lp895
(lp896
I9999
aI9999
aI9999
aF5.040196418762207
aF5.117833614349365
aI9999
aI9999
aI9999
aaI-1
aa(lp897
(lp898
I9999
aI9999
aI9999
aF5.049690246582031
aF5.134319305419922
aI9999
aI9999
aI9999
aaI-1
aa(lp899
(lp900
I9999
aI9999
aI9999
aF5.0514607429504395
aF5.117898941040039
aI9999
aI9999
aI9999
aaI-1
aa(lp901
(lp902
I9999
aI9999
aI9999
aF5.0596418380737305
aF5.126632213592529
aI9999
aI9999
aI9999
aaI-1
aa(lp903
(lp904
I9999
aI9999
aI9999
aF5.065958023071289
aF5.133565425872803
aI9999
aI9999
aI9999
aaI-1
aa(lp905
(lp906
I9999
aI9999
aI9999
aF5.070455551147461
aF5.139136791229248
aI9999
aI9999
aI9999
aaI-1
aa(lp907
(lp908
I9999
aI9999
aI9999
aF5.0778656005859375
aF5.146242618560791
aI9999
aI9999
aI9999
aaI-1
aa(lp909
(lp910
I9999
aI9999
aI9999
aF5.093280792236328
aF5.164532661437988
aI9999
aI9999
aI9999
aaI-1
aa(lp911
(lp912
I9999
aI9999
aI9999
aF5.105284214019775
aF5.177277565002441
aI9999
aI9999
aI9999
aaI-1
aa(lp913
(lp914
I9999
aI9999
aI9999
aF5.117547988891602
aF5.1859331130981445
aI9999
aI9999
aI9999
aaI-1
aa(lp915
(lp916
I9999
aI9999
aI9999
aF5.128610134124756
aF5.196478366851807
aI9999
aI9999
aI9999
aaI-1
aa(lp917
(lp918
I9999
aI9999
aI9999
aF5.239340782165527
aF5.304024696350098
aI9999
aI9999
aI9999
aaI-1
aa(lp919
(lp920
I9999
aI9999
aI9999
aF5.376462936401367
aF5.448306083679199
aI9999
aI9999
aI9999
aaI-1
aa(lp921
(lp922
I9999
aI9999
aI9999
aF5.3776021003723145
aF5.447062015533447
aI9999
aI9999
aI9999
aaI-1
aa(lp923
(lp924
I9999
aI9999
aI9999
aF5.460555553436279
aF5.526584148406982
aI9999
aI9999
aI9999
aaI-1
aa(lp925
(lp926
I9999
aI9999
aI9999
aF5.658308506011963
aF5.723309516906738
aI9999
aI9999
aI9999
aaI-1
aa(lp927
(lp928
I9999
aI9999
aI9999
aF5.896726608276367
aF5.970615386962891
aI9999
aI9999
aI9999
aaI-1
aa(lp929
(lp930
I9999
aI9999
aI9999
aF5.91818380355835
aF5.992687702178955
aI9999
aI9999
aI9999
aaI-1
aa(lp931
(lp932
I9999
aI9999
aI9999
aF5.950358867645264
aI9999
aI9999
aI9999
aI9999
aaI-1
aa(lp933
(lp934
I9999
aI9999
aI9999
aF5.967824459075928
aI9999
aI9999
aI9999
aI9999
aaI-1
aa(lp935
(lp936
I9999
aI9999
aI9999
aF5.97706937789917
aI9999
aI9999
aI9999
aI9999
aaI-1
aa(lp937
(lp938
I9999
aI9999
aI9999
aF5.989036560058594
aI9999
aI9999
aI9999
aI9999
aaI-1
aa(lp939
(lp940
I9999
aI9999
aI9999
aI9999
aI9999
aI9999
aI9999
aI9999
aaI-1
aa(lp941
(lp942
I9999
aI9999
aI9999
aI9999
aI9999
aI9999
aI9999
aI9999
aaI-1
aa(lp943
(lp944
I9999
aI9999
aI9999
aI9999
aI9999
aI9999
aI9999
aI9999
aaI-1
aa(lp945
(lp946
I9999
aI9999
aI9999
aI9999
aI9999
aI9999
aI9999
aI9999
aaI-1
aa(lp947
(lp948
I9999
aI9999
aI9999
aI9999
aI9999
aI9999
aI9999
aI9999
aaI-1
aa(lp949
(lp950
I9999
aI9999
aF0.30049458146095276
aF5.977842330932617
aI9999
aF0.30049455165863037
aI9999
aI9999
aaI-1
aa(lp951
(lp952
I9999
aI9999
aI9999
aF5.722597122192383
aF5.817460060119629
aI9999
aI9999
aI9999
aaI-1
aa(lp953
(lp954
I9999
aI9999
aI9999
aF5.767806529998779
aF5.866308689117432
aI9999
aI9999
aI9999
aaI-1
aa(lp955
(lp956
I9999
aI9999
aI9999
aF5.76350212097168
aF5.862528324127197
aI9999
aI9999
aI9999
aaI-1
aa(lp957
(lp958
I9999
aI9999
aI9999
aF5.760128974914551
aF5.857802391052246
aI9999
aI9999
aI9999
aaI-1
aa(lp959
(lp960
I9999
aI9999
aI9999
aF5.734660625457764
aF5.834079265594482
aI9999
aI9999
aI9999
aaI-1
aa(lp961
(lp962
I9999
aI9999
aI9999
aF5.709054470062256
aF5.808444023132324
aI9999
aI9999
aI9999
aaI-1
aa(lp963
(lp964
I9999
aI9999
aI9999
aF5.6922760009765625
aF5.791104316711426
aI9999
aI9999
aI9999
aaI-1
aa(lp965
(lp966
I9999
aI9999
aI9999
aF5.673696517944336
aF5.774560451507568
aI9999
aI9999
aI9999
aaI-1
aa(lp967
(lp968
I9999
aI9999
aI9999
aF5.642337322235107
aF5.745579719543457
aI9999
aI9999
aI9999
aaI-1
aa(lp969
(lp970
I9999
aI9999
aI9999
aF5.612669944763184
aF5.717723369598389
aI9999
aI9999
aI9999
aaI-1
aa(lp971
(lp972
I9999
aI9999
aI9999
aF5.585321426391602
aF5.689698219299316
aI9999
aI9999
aI9999
aaI-1
aa(lp973
(lp974
I9999
aI9999
aI9999
aF5.557939529418945
aF5.663788795471191
aI9999
aI9999
aI9999
aaI-1
aa(lp975
(lp976
I9999
aI9999
aI9999
aF5.557751178741455
aF5.662905216217041
aI9999
aI9999
aI9999
aaI-1
aa(lp977
(lp978
I9999
aI9999
aI9999
aF5.638290882110596
aF5.740922927856445
aI9999
aI9999
aI9999
aaI-1
aa(lp979
(lp980
I9999
aI9999
aI9999
aF5.785300254821777
aF5.890883922576904
aI9999
aI9999
aI9999
aaI-1
aa(lp981
(lp982
I9999
aI9999
aI9999
aF5.939870357513428
aI9999
aI9999
aI9999
aI9999
aaI-1
aa(lp983
(lp984
I9999
aI9999
aI9999
aF5.938522815704346
aI9999
aI9999
aI9999
aI9999
aaI-1
aa(lp985
(lp986
I9999
aI9999
aI9999
aF5.968292236328125
aI9999
aI9999
aI9999
aI9999
aaI-1
aa(lp987
(lp988
I9999
aI9999
aI9999
aF5.9285712242126465
aI9999
aI9999
aI9999
aI9999
aaI-1
aa(lp989
(lp990
I9999
aI9999
aI9999
aF5.83690881729126
aF5.944304466247559
aI9999
aI9999
aI9999
aaI-1
aa(lp991
(lp992
I9999
aI9999
aI9999
aF5.85699462890625
aF5.966316223144531
aI9999
aI9999
aI9999
aaI-1
aa(lp993
(lp994
I9999
aI9999
aI9999
aF5.873012542724609
aF5.982150077819824
aI9999
aI9999
aI9999
aaI-1
aa(lp995
(lp996
I9999
aI9999
aI9999
aF5.8884196281433105
aI9999
aI9999
aI9999
aI9999
aaI-1
aa(lp997
(lp998
I9999
aI9999
aI9999
aF5.909964084625244
aI9999
aI9999
aI9999
aI9999
aaI-1
aa(lp999
(lp1000
I9999
aI9999
aI9999
aF5.931258678436279
aI9999
aI9999
aI9999
aI9999
aaI-1
aa(lp1001
(lp1002
I9999
aI9999
aF0.30049458146095276
aF0.2410372495651245
aF0.2410372495651245
aF0.30049458146095276
aI9999
aI9999
aaI-1
aa(lp1003
(lp1004
I9999
aI9999
aI9999
aF5.641195774078369
aF5.7505669593811035
aI9999
aI9999
aI9999
aaI-1
aa(lp1005
(lp1006
I9999
aI9999
aI9999
aF5.63135290145874
aF5.8916778564453125
aI9999
aI9999
aI9999
aaI-1
aa(lp1007
(lp1008
I9999
aI9999
aI9999
aF5.620243072509766
aI9999
aI9999
aI9999
aI9999
aaI-1
aa(lp1009
(lp1010
I9999
aI9999
aI9999
aF5.6395158767700195
aI9999
aI9999
aI9999
aI9999
aaI-1
aa(lp1011
(lp1012
I9999
aI9999
aI9999
aF5.647195816040039
aI9999
aI9999
aI9999
aI9999
aaI-1
aa(lp1013
(lp1014
I9999
aI9999
aI9999
aI9999
aF5.68296480178833
aI9999
aI9999
aI9999
aaI-1
aa(lp1015
(lp1016
I9999
aI9999
aI9999
aI9999
aF5.6503424644470215
aI9999
aI9999
aI9999
aaI-1
aa(lp1017
(lp1018
I9999
aI9999
aI9999
aI9999
aF5.563416957855225
aF5.98588228225708
aI9999
aI9999
aaI-1
aa(lp1019
(lp1020
I9999
aI9999
aI9999
aF5.98300838470459
aF5.518631458282471
aI9999
aI9999
aI9999
aaI-1
aa(lp1021
(lp1022
I9999
aI9999
aI9999
aF5.746100902557373
aF5.529994010925293
aI9999
aI9999
aI9999
aaI-1
aa(lp1023
(lp1024
I9999
aI9999
aI9999
aF5.748543739318848
aF5.53087043762207
aI9999
aI9999
aI9999
aaI-1
aa(lp1025
(lp1026
I9999
aI9999
aI9999
aF5.740057945251465
aF5.528392791748047
aI9999
aI9999
aI9999
aaI-1
aa(lp1027
(lp1028
I9999
aI9999
aI9999
aF5.725233554840088
aF5.515781402587891
aI9999
aI9999
aI9999
aaI-1
aa(lp1029
(lp1030
I9999
aI9999
aI9999
aF0.24103723466396332
aF0.24103723466396332
aI9999
aI9999
aI9999
aaI-1
aa(lp1031
(lp1032
I9999
aI9999
aI9999
aF5.469285488128662
aF5.285858154296875
aI9999
aI9999
aI9999
aaI-1
aa(lp1033
(lp1034
I9999
aI9999
aI9999
aF5.500453948974609
aF5.308781147003174
aI9999
aI9999
aI9999
aaI-1
aa(lp1035
(lp1036
I9999
aI9999
aI9999
aF5.495203495025635
aF5.302487373352051
aI9999
aI9999
aI9999
aaI-1
aa(lp1037
(lp1038
I9999
aI9999
aI9999
aF5.511646747589111
aF5.319385051727295
aI9999
aI9999
aI9999
aaI-1
aa(lp1039
(lp1040
I9999
aI9999
aI9999
aF0.24103723466396332
aF0.24103723466396332
aI9999
aI9999
aI9999
aaI-1
aa(lp1041
(lp1042
I9999
aI9999
aI9999
aF5.353732109069824
aF5.163384437561035
aI9999
aI9999
aI9999
aaI-1
aa(lp1043
(lp1044
I9999
aI9999
aF0.30049455165863037
aF5.328846454620361
aF5.143421649932861
aF0.30049455165863037
aF0.2609018385410309
aI9999
aaI-1
aa(lp1045
(lp1046
I9999
aI9999
aI9999
aF4.994272708892822
aF4.811233043670654
aF5.735954284667969
aI9999
aI9999
aaI-1
aa(lp1047
(lp1048
I9999
aI9999
aI9999
aF5.0113749504089355
aF4.831849098205566
aF5.766212463378906
aI9999
aI9999
aaI-1
aa(lp1049
(lp1050
I9999
aI9999
aI9999
aF4.969903945922852
aF4.792436122894287
aF5.719964981079102
aI9999
aI9999
aaI-1
aa(lp1051
(lp1052
I9999
aI9999
aF0.30049455165863037
aF4.902864456176758
aF4.735228538513184
aF0.30049458146095276
aF0.2609018385410309
aI9999
aaI-1
aa(lp1053
(lp1054
I9999
aI9999
aF5.923649311065674
aF4.524398326873779
aF4.357297897338867
aF5.193019866943359
aI9999
aI9999
aaI-1
aa(lp1055
(lp1056
I9999
aI9999
aF5.9859418869018555
aF4.57312536239624
aF4.405039310455322
aF5.251031875610352
aI9999
aI9999
aaI-1
aa(lp1057
(lp1058
I9999
aI9999
aF0.30049458146095276
aF0.2410372495651245
aF4.332189083099365
aF0.30049455165863037
aF0.2609018385410309
aI9999
aaI-1
aa(lp1059
(lp1060
I9999
aI9999
aF5.5031046867370605
aF4.195899963378906
aF4.0357818603515625
aF4.802811145782471
aI9999
aI9999
aaI-1
aa(lp1061
(lp1062
I9999
aI9999
aF5.592927932739258
aF4.267879009246826
aF4.107481479644775
aF4.891502857208252
aI9999
aI9999
aaI-1
aa(lp1063
(lp1064
I9999
aI9999
aF5.506494045257568
aF4.2047200202941895
aF4.048675060272217
aF4.82417631149292
aI9999
aI9999
aaI-1
aa(lp1065
(lp1066
I9999
aI9999
aF0.30049458146095276
aF4.120120525360107
aF3.9742238521575928
aF0.30049455165863037
aF0.26090186834335327
aI9999
aaI-1
aa(lp1067
(lp1068
I9999
aI9999
aF4.9453125
aF3.7698869705200195
aF3.625519037246704
aF4.31388521194458
aI9999
aI9999
aaI1
aa(lp1069
(lp1070
I9999
aI9999
aF4.957479000091553
aF3.786086320877075
aF3.64599609375
aF4.344938278198242
aI9999
aI9999
aaI1
aa(lp1071
(lp1072
I9999
aI9999
aF4.895332336425781
aF3.7386224269866943
aF3.6002871990203857
aF4.290464878082275
aI9999
aI9999
aaI1
aa(lp1073
(lp1074
I9999
aI9999
aF4.872214317321777
aF3.7214102745056152
aF3.5840256214141846
aF4.271515369415283
aI9999
aI9999
aaI1
aa(lp1075
(lp1076
I9999
aI9999
aF4.845015048980713
aF3.7006447315216064
aF3.564033269882202
aF4.247697353363037
aI9999
aI9999
aaI1
aa(lp1077
(lp1078
I9999
aI9999
aF4.824758052825928
aF3.686861991882324
aF3.551957368850708
aF4.234944820404053
aI9999
aI9999
aaI1
aa(lp1079
(lp1080
I9999
aI9999
aF4.873997211456299
aF3.7240476608276367
aF3.587470054626465
aF4.276858329772949
aI9999
aI9999
aaI1
aa(lp1081
(lp1082
I9999
aI9999
aF5.023207664489746
aF3.839848279953003
aF3.7002971172332764
aF4.413111686706543
aI9999
aI9999
aaI-1
aa(lp1083
(lp1084
I9999
aI9999
aF5.137096881866455
aF3.9439311027526855
aF3.812772750854492
aF4.564058303833008
aI9999
aI9999
aaI-1
aa(lp1085
(lp1086
I9999
aI9999
aF5.1658549308776855
aF3.9584290981292725
aF3.8213675022125244
aF4.566859722137451
aI9999
aI9999
aaI-1
aa(lp1087
(lp1088
I9999
aI9999
aF5.115475654602051
aF3.9218714237213135
aF3.787538528442383
aF4.528450012207031
aI9999
aI9999
aaI-1
aa(lp1089
(lp1090
I9999
aI9999
aF4.95789098739624
aF3.796535015106201
aF3.663268566131592
aF4.375424861907959
aI9999
aI9999
aaI1
aa(lp1091
(lp1092
I9999
aI9999
aF0.30049458146095276
aF3.7651915550231934
aF3.6382501125335693
aF0.30049458146095276
aF0.2609018385410309
aI9999
aaI1
aa(lp1093
(lp1094
I9999
aI9999
aF4.4066290855407715
aF3.376659631729126
aF3.259742498397827
aF3.8956713676452637
aI9999
aI9999
aaI1
aa(lp1095
(lp1096
I9999
aI9999
aF4.450902462005615
aF3.4138147830963135
aF3.297921657562256
aF3.944488763809204
aI9999
aI9999
aaI1
aa(lp1097
(lp1098
I9999
aI9999
aF4.3971405029296875
aF3.37563157081604
aF3.2632224559783936
aF3.9060146808624268
aI9999
aI9999
aaI1
aa(lp1099
(lp1100
I9999
aI9999
aF4.358962059020996
aF3.3489654064178467
aF3.2393431663513184
aF3.8800649642944336
aI9999
aI9999
aaI1
aa(lp1101
(lp1102
I9999
aI9999
aF4.399258136749268
aF3.379138708114624
aF3.2679641246795654
aF3.9135634899139404
aI9999
aI9999
aaI1
aa(lp1103
(lp1104
I9999
aI9999
aF4.512117862701416
aF3.4659650325775146
aF3.352031946182251
aF4.014375686645508
aI9999
aI9999
aaI1
aa(lp1105
(lp1106
I9999
aI9999
aF4.4198317527771
aF3.5242183208465576
aF3.507486343383789
aF4.346959114074707
aI9999
aI9999
aaI1
aa(lp1107
(lp1108
I9999
aI9999
aF4.464559555053711
aF3.550628423690796
aF3.526496410369873
aF4.3594489097595215
aI9999
aI9999
aaI1
aa(lp1109
(lp1110
I9999
aI9999
aF4.484759330749512
aF3.569812774658203
aF3.548001527786255
aF4.389759540557861
aI9999
aI9999
aaI1
aa(lp1111
(lp1112
I9999
aI9999
aF4.49059534072876
aF3.5745584964752197
aF3.5527970790863037
aF4.39581298828125
aI9999
aI9999
aaI1
aa(lp1113
(lp1114
I9999
aI9999
aF4.586479187011719
aF3.648934841156006
aF3.625190019607544
aF4.483057022094727
aI9999
aI9999
aaI1
aa(lp1115
(lp1116
I9999
aI9999
aF4.720281600952148
aF3.756758451461792
aF3.7333903312683105
aF4.61850118637085
aI9999
aI9999
aaI-1
aa(lp1117
(lp1118
I9999
aI9999
aF4.843644618988037
aF3.8580563068389893
aF3.8365108966827393
aF4.749804973602295
aI9999
aI9999
aaI-1
aa(lp1119
(lp1120
I9999
aI9999
aF4.854692459106445
aF3.8693199157714844
aF3.8496546745300293
aF4.769042491912842
aI9999
aI9999
aaI-1
aa(lp1121
(lp1122
I9999
aI9999
aF4.846085548400879
aF3.865537643432617
aF3.848323345184326
aF4.771111488342285
aI9999
aI9999
aaI-1
aa(lp1123
(lp1124
I9999
aI9999
aF4.812793254852295
aF3.841815710067749
aF3.8269503116607666
aF4.748050689697266
aI9999
aI9999
aaI-1
aa(lp1125
(lp1126
I9999
aI9999
aF4.7933502197265625
aF3.825383424758911
aF3.8098597526550293
aF4.7257399559021
aI9999
aI9999
aaI-1
aa(lp1127
(lp1128
I9999
aI9999
aF4.766912937164307
aF3.8069334030151367
aF3.793583631515503
aF4.7087721824646
aI9999
aI9999
aaI-1
aa(lp1129
(lp1130
I9999
aI9999
aF0.300494521856308
aF0.24103721976280212
aF0.24103721976280212
aF0.30049455165863037
aI9999
aI9999
aaI-1
aa(lp1131
(lp1132
I9999
aI9999
aF4.273838043212891
aF3.427582025527954
aF3.4270899295806885
aF4.271695137023926
aI9999
aI9999
aaI1
aa(lp1133
(lp1134
I9999
aI9999
aF4.312618732452393
aF3.453247547149658
aF3.4484057426452637
aF4.291532039642334
aI9999
aI9999
aaI1
aa(lp1135
(lp1136
I9999
aI9999
aF4.282985210418701
aF3.431206226348877
aF3.427743673324585
aF4.267905235290527
aI9999
aI9999
aaI1
aa(lp1137
(lp1138
I9999
aI9999
aF4.279956817626953
aF3.428771734237671
aF3.425304651260376
aF4.264857769012451
aI9999
aI9999
aaI1
aa(lp1139
(lp1140
I9999
aI9999
aF4.243858814239502
aF3.405740976333618
aF3.40701961517334
aF4.249427318572998
aI9999
aI9999
aaI1
aa(lp1141
(lp1142
I9999
aI9999
aF4.2502875328063965
aF3.3911631107330322
aF3.3767499923706055
aF4.187513828277588
aI9999
aI9999
aaI1
aa(lp1143
(lp1144
I9999
aI9999
aF4.236159324645996
aF3.3801684379577637
aF3.3660216331481934
aF4.174546718597412
aI9999
aI9999
aaI1
aa(lp1145
(lp1146
I9999
aI9999
aF4.232799053192139
aF3.377422332763672
aF3.3632354736328125
aF4.1710124015808105
aI9999
aI9999
aaI1
aa(lp1147
(lp1148
I9999
aI9999
aF4.232508659362793
aF3.375223398208618
aF3.3594911098480225
aF4.163989543914795
aI9999
aI9999
aaI1
aa(lp1149
(lp1150
I9999
aI9999
aF4.227465629577637
aF3.370805501937866
aF3.354780912399292
aF4.157672882080078
aI9999
aI9999
aaI1
aa(lp1151
(lp1152
I9999
aI9999
aF4.22628927230835
aF3.3680808544158936
aF3.3506593704223633
aF4.150412082672119
aI9999
aI9999
aaI1
aa(lp1153
(lp1154
I9999
aI9999
aF4.228598117828369
aF3.368279457092285
aF3.3495633602142334
aF4.1470818519592285
aI9999
aI9999
aaI1
aa(lp1155
(lp1156
I9999
aI9999
aF4.2193284034729
aF3.3593180179595947
aF3.3394100666046143
aF4.132619857788086
aI9999
aI9999
aaI1
aa(lp1157
(lp1158
I9999
aI9999
aF4.1935648918151855
aF3.3387486934661865
aF3.318917989730835
aF4.107192039489746
aI9999
aI9999
aaI1
aa(lp1159
(lp1160
I9999
aI9999
aF4.1742072105407715
aF3.321953535079956
aF3.3011350631713867
aF4.083531379699707
aI9999
aI9999
aaI1
aa(lp1161
(lp1162
I9999
aI9999
aF4.168845176696777
aF3.318493604660034
aF3.2983312606811523
aF4.081027984619141
aI9999
aI9999
aaI1
aa(lp1163
(lp1164
I9999
aI9999
aF4.189635276794434
aF3.3334338665008545
aF3.3119168281555176
aF4.095915794372559
aI9999
aI9999
aaI1
aa(lp1165
(lp1166
I9999
aI9999
aF4.221287727355957
aF3.3576462268829346
aF3.335210084915161
aF4.123564720153809
aI9999
aI9999
aaI1
aa(lp1167
(lp1168
I9999
aI9999
aF4.243125915527344
aF3.376495599746704
aF3.3550949096679688
aF4.149914741516113
aI9999
aI9999
aaI1
aa(lp1169
(lp1170
I9999
aI9999
aF4.274197101593018
aF3.4030935764312744
aF3.3829972743988037
aF4.186668395996094
aI9999
aI9999
aaI1
aa(lp1171
(lp1172
I9999
aI9999
aF4.286314010620117
aF3.4121644496917725
aF3.391561269760132
aF4.196577072143555
aI9999
aI9999
aaI1
aa(lp1173
(lp1174
I9999
aI9999
aF4.279300212860107
aF3.4072563648223877
aF3.387214183807373
aF4.192007064819336
aI9999
aI9999
aaI1
aa(lp1175
(lp1176
I9999
aI9999
aF4.250083923339844
aF3.3851938247680664
aF3.3662261962890625
aF4.167471885681152
aI9999
aI9999
aaI1
aa(lp1177
(lp1178
I9999
aI9999
aF4.3551225662231445
aF3.4667017459869385
aF3.4455814361572266
aF4.263133525848389
aI9999
aI9999
aaI1
aa(lp1179
(lp1180
I9999
aI9999
aF4.506466865539551
aF3.5898804664611816
aF3.5701422691345215
aF4.420498371124268
aI9999
aI9999
aaI1
aa(lp1181
(lp1182
I9999
aI9999
aF4.634472370147705
aF3.6945114135742188
aF3.6762969493865967
aF4.555141925811768
aI9999
aI9999
aaI1
aa(lp1183
(lp1184
I9999
aI9999
aF4.63322114944458
aF3.691498279571533
aF3.6717092990875244
aF4.547031879425049
aI9999
aI9999
aaI1
aa(lp1185
(lp1186
I9999
aI9999
aF4.643598556518555
aF3.700483798980713
aF3.6812121868133545
aF4.55966329574585
aI9999
aI9999
aaI1
aa(lp1187
(lp1188
I9999
aF5.073538303375244
aF3.9087729454040527
aF3.7886292934417725
aF4.548872947692871
aI9999
aI9999
aI9999
aaI-1
aa(lp1189
(lp1190
I9999
aF4.858790874481201
aF4.018928527832031
aF4.122023582458496
aF5.308582782745361
aI9999
aI9999
aI9999
aaI-1
aa(lp1191
(lp1192
I9999
aF4.955014705657959
aF4.099879264831543
aF4.206233978271484
aF5.419048309326172
aI9999
aI9999
aI9999
aaI-1
aa(lp1193
(lp1194
I9999
aF5.06490421295166
aF4.199132442474365
aF4.315341949462891
aF5.5720624923706055
aI9999
aI9999
aI9999
aaI-1
aa(lp1195
(lp1196
I9999
aF5.097121238708496
aF4.233808517456055
aF4.357976913452148
aF5.639151573181152
aI9999
aI9999
aI9999
aaI-1
aa(lp1197
(lp1198
I9999
aF5.078473091125488
aF4.22634744644165
aF4.357388019561768
aF5.650656700134277
aI9999
aI9999
aI9999
aaI-1
aa(lp1199
(lp1200
I9999
aF5.031452655792236
aF4.1940598487854
aF4.33017110824585
aF5.625924110412598
aI9999
aI9999
aI9999
aaI-1
aa(lp1201
(lp1202
I9999
aF4.964327812194824
aF4.147225379943848
aF4.289953231811523
aF5.587913990020752
aI9999
aI9999
aI9999
aaI-1
aa(lp1203
(lp1204
I9999
aF4.907063961029053
aF4.105522632598877
aF4.25231409072876
aF5.5485687255859375
aI9999
aI9999
aI9999
aaI-1
aa(lp1205
(lp1206
I9999
aF4.851207256317139
aF4.066506385803223
aF4.218853950500488
aF5.517213344573975
aI9999
aI9999
aI9999
aaI-1
aa(lp1207
(lp1208
I9999
aF4.8070220947265625
aF4.035582542419434
aF4.1923041343688965
aF5.492339134216309
aI9999
aI9999
aI9999
aaI-1
aa(lp1209
(lp1210
I9999
aF4.783833980560303
aF4.0219316482543945
aF4.183406352996826
aF5.490131855010986
aI9999
aI9999
aI9999
aaI-1
aa(lp1211
(lp1212
I9999
aF4.757786273956299
aF4.00415563583374
aF4.168673515319824
aF5.477541923522949
aI9999
aI9999
aI9999
aaI-1
aa(lp1213
(lp1214
I9999
aF4.710562705993652
aF3.9678592681884766
aF4.134036064147949
aF5.4377007484436035
aI9999
aI9999
aI9999
aaI-1
aa(lp1215
(lp1216
I9999
aF4.649652481079102
aF3.9223880767822266
aF4.092010974884033
aF5.3920979499816895
aI9999
aI9999
aI9999
aaI-1
aa(lp1217
(lp1218
I9999
aF4.5973052978515625
aF3.885042667388916
aF4.059327602386475
aF5.360442638397217
aI9999
aI9999
aI9999
aaI-1
aa(lp1219
(lp1220
I9999
aF4.553199291229248
aF3.8548452854156494
aF4.034326076507568
aF5.339408874511719
aI9999
aI9999
aI9999
aaI-1
aa(lp1221
(lp1222
I9999
aF4.516209125518799
aF3.82826828956604
aF4.010916709899902
aF5.316523551940918
aI9999
aI9999
aI9999
aaI-1
aa(lp1223
(lp1224
I9999
aF4.83125114440918
aF3.881138563156128
aF3.8858213424682617
aF4.8516459465026855
aI9999
aI9999
aI9999
aaI-1
aa(lp1225
(lp1226
I9999
aF5.399552345275879
aF3.9781177043914795
aF3.7339696884155273
aF4.324187278747559
aI9999
aI9999
aI9999
aaI-1
aa(lp1227
(lp1228
I9999
aI9999
aF4.287580966949463
aF3.679565906524658
aF3.898078441619873
aF5.248171806335449
aI9999
aI9999
aaI-1
aa(lp1229
(lp1230
I9999
aI9999
aF4.940922737121582
aF3.725114345550537
aF3.5538058280944824
aF4.1902031898498535
aI9999
aI9999
aaI-1
aa(lp1231
(lp1232
I9999
aI9999
aF4.815792083740234
aF3.6146621704101562
aF3.4374613761901855
aF4.038570880889893
aI9999
aI9999
aaI1
aa(lp1233
(lp1234
I9999
aI9999
aF4.70768928527832
aF3.526024580001831
aF3.3480982780456543
aF3.926945924758911
aI9999
aI9999
aaI1
aa(lp1235
(lp1236
I9999
aI9999
aF4.679157257080078
aF3.4976556301116943
aF3.316450834274292
aF3.883692741394043
aI9999
aI9999
aaI1
aa(lp1237
(lp1238
I9999
aI9999
aF4.711842060089111
aF3.512683629989624
aF3.324409008026123
aF3.884864091873169
aI9999
aI9999
aaI1
aa(lp1239
(lp1240
I9999
aI9999
aF4.8002729415893555
aF3.567150354385376
aF3.368346929550171
aF3.926421880722046
aI9999
aI9999
aaI1
aa(lp1241
(lp1242
I9999
aI9999
aF4.925723075866699
aF3.6468727588653564
aF3.434736490249634
aF3.9924659729003906
aI9999
aI9999
aaI1
aa(lp1243
(lp1244
I9999
aI9999
aF5.069834232330322
aF3.7402498722076416
aF3.5139873027801514
aF4.073578357696533
aI9999
aI9999
aaI1
aa(lp1245
(lp1246
I9999
aI9999
aF5.223820209503174
aF3.840484380722046
aF3.599503993988037
aF4.16184139251709
aI9999
aI9999
aaI1
aa(lp1247
(lp1248
I9999
aI9999
aF5.371314525604248
aF3.9378502368927
aF3.683645009994507
aF4.250247955322266
aI9999
aI9999
aaI1
aa(lp1249
(lp1250
I9999
aI9999
aF5.507528781890869
aF4.028653144836426
aF3.762796640396118
aF4.334387302398682
aI9999
aI9999
aaI-1
aa(lp1251
(lp1252
I9999
aI9999
aF5.62363338470459
aF4.106055736541748
aF3.83030366897583
aF4.406230926513672
aI9999
aI9999
aaI-1
aa(lp1253
(lp1254
I9999
aI9999
aF5.740097999572754
aF4.183407783508301
aF3.8975942134857178
aF4.477646827697754
aI9999
aI9999
aaI-1
aa(lp1255
(lp1256
I9999
aI9999
aF5.806701183319092
aF4.228245258331299
aF3.937028646469116
aF4.520076751708984
aI9999
aI9999
aaI-1
aa(lp1257
(lp1258
I9999
aI9999
aF5.859602451324463
aF4.259949207305908
aF3.962257146835327
aF4.543785572052002
aI9999
aI9999
aaI-1
aa(lp1259
(lp1260
I9999
aI9999
aF5.892907619476318
aF4.278020858764648
aF3.975212574005127
aF4.553938388824463
aI9999
aI9999
aaI-1
aa(lp1261
(lp1262
I9999
aI9999
aF5.928421497344971
aF4.302585601806641
aF3.9972758293151855
aF4.57828426361084
aI9999
aI9999
aaI-1
aa(lp1263
(lp1264
I9999
aI9999
aF5.973787307739258
aF4.3345417976379395
aF4.026357650756836
aF4.610854625701904
aI9999
aI9999
aaI-1
aa(lp1265
(lp1266
I9999
aI9999
aI9999
aF4.352904319763184
aF4.039609909057617
aF4.621403694152832
aI9999
aI9999
aaI-1
aa(lp1267
(lp1268
I9999
aI9999
aI9999
aF4.3600754737854
aF4.046817779541016
aF4.630321979522705
aI9999
aI9999
aaI-1
aa(lp1269
(lp1270
I9999
aI9999
aI9999
aF4.369329452514648
aF4.0561394691467285
aF4.641878604888916
aI9999
aI9999
aaI-1
aa(lp1271
(lp1272
I9999
aI9999
aI9999
aF4.374840259552002
aF4.0603132247924805
aF4.645509243011475
aI9999
aI9999
aaI-1
aa(lp1273
(lp1274
I9999
aI9999
aI9999
aF4.356868743896484
aF4.0436177253723145
aF4.6263885498046875
aI9999
aI9999
aaI-1
aa(lp1275
(lp1276
I9999
aI9999
aI9999
aF4.354684352874756
aF4.042078971862793
aF4.625222206115723
aI9999
aI9999
aaI-1
aa(lp1277
(lp1278
I9999
aI9999
aF4.521071910858154
aF4.049729824066162
aF4.467978477478027
aI9999
aI9999
aI9999
aaI-1
aa(lp1279
(lp1280
I9999
aF5.521972179412842
aF4.290665149688721
aF4.185531139373779
aF5.063318252563477
aI9999
aI9999
aI9999
aaI-1
aa(lp1281
(lp1282
I9999
aF5.7506489753723145
aF4.433070659637451
aF4.2987213134765625
aF5.1639933586120605
aI9999
aI9999
aI9999
aaI-1
aa(lp1283
(lp1284
I9999
aF5.854344844818115
aF4.51552677154541
aF4.3805060386657715
aF5.264800071716309
aI9999
aI9999
aI9999
aaI-1
aa(lp1285
(lp1286
I9999
aF5.914384365081787
aF4.567972660064697
aF4.435848236083984
aF5.337584495544434
aI9999
aI9999
aI9999
aaI-1
aa(lp1287
(lp1288
I9999
aF5.907199382781982
aF4.575299263000488
aF4.452387809753418
aF5.370798110961914
aI9999
aI9999
aI9999
aaI-1
aa(lp1289
(lp1290
I9999
aF5.831004619598389
aF4.532083034515381
aF4.42199182510376
aF5.35073709487915
aI9999
aI9999
aI9999
aaI-1
aa(lp1291
(lp1292
I9999
aF5.719393253326416
aF4.462841033935547
aF4.3674750328063965
aF5.303526878356934
aI9999
aI9999
aI9999
aaI-1
aa(lp1293
(lp1294
I9999
aF5.608997344970703
aF4.387396812438965
aF4.30167293548584
aF5.235255718231201
aI9999
aI9999
aI9999
aaI-1
aa(lp1295
(lp1296
I9999
aF5.478951454162598
aF4.300860404968262
aF4.228318214416504
aF5.162768363952637
aI9999
aI9999
aI9999
aaI-1
aa(lp1297
(lp1298
I9999
aF5.371761798858643
aF4.226728439331055
aF4.163062572479248
aF5.0943145751953125
aI9999
aI9999
aI9999
aaI-1
aa(lp1299
(lp1300
I9999
aF5.714264869689941
aF4.283988952636719
aF4.070552349090576
aF4.777884006500244
aI9999
aI9999
aI9999
aaI-1
aa(lp1301
(lp1302
I9999
aI9999
aF4.306617736816406
aF3.9438462257385254
aF4.4494309425354
aI9999
aI9999
aI9999
aaI-1
aa(lp1303
(lp1304
I9999
aI9999
aF4.4082350730896
aF3.8796188831329346
aF4.2075982093811035
aF5.863462924957275
aI9999
aI9999
aaI-1
aa(lp1305
(lp1306
I9999
aI9999
aF4.505753993988037
aF3.797060966491699
aF3.9576573371887207
aF5.208539009094238
aI9999
aI9999
aaI-1
aa(lp1307
(lp1308
I9999
aI9999
aF4.752217769622803
aF3.8118820190429688
aF3.8118505477905273
aF4.752081871032715
aI9999
aI9999
aaI-1
aa(lp1309
(lp1310
I9999
aI9999
aF4.935664653778076
aF3.792656183242798
aF3.6689515113830566
aF4.395259380340576
aI9999
aI9999
aaI-1
aa(lp1311
(lp1312
I9999
aI9999
aF4.850740432739258
aF3.7317557334899902
aF3.6131770610809326
aF4.332810401916504
aI9999
aI9999
aaI-1
aa(lp1313
(lp1314
I9999
aI9999
aF4.822604656219482
aF3.70784068107605
aF3.5883867740631104
aF4.300808429718018
aI9999
aI9999
aaI-1
aa(lp1315
(lp1316
I9999
aI9999
aF4.837532043457031
aF3.714484930038452
aF3.5913445949554443
aF4.29953670501709
aI9999
aI9999
aaI-1
aa(lp1317
(lp1318
I9999
aI9999
aF4.8683552742004395
aF3.7374415397644043
aF3.613030433654785
aF4.32479190826416
aI9999
aI9999
aaI-1
aa(lp1319
(lp1320
I9999
aI9999
aF4.938467502593994
aF3.7874763011932373
aF3.658684492111206
aF4.375685214996338
aI9999
aI9999
aaI-1
aa(lp1321
(lp1322
I9999
aI9999
aF5.03957462310791
aF3.8579835891723633
aF3.721775770187378
aF4.444226264953613
aI9999
aI9999
aaI-1
aa(lp1323
(lp1324
I9999
aI9999
aF5.149311065673828
aF3.932420253753662
aF3.786794424057007
aF4.512562274932861
aI9999
aI9999
aaI-1
aa(lp1325
(lp1326
I9999
aI9999
aF5.24484920501709
aF3.9987967014312744
aF3.8460636138916016
aF4.576849460601807
aI9999
aI9999
aaI-1
aa(lp1327
(lp1328
I9999
aI9999
aF5.3358473777771
aF4.060429573059082
aF3.8998966217041016
aF4.633516311645508
aI9999
aI9999
aaI-1
aa(lp1329
(lp1330
I9999
aI9999
aF5.437493324279785
aF4.1316304206848145
aF3.963977336883545
aF4.70382833480835
aI9999
aI9999
aaI-1
aa(lp1331
(lp1332
I9999
aI9999
aF5.518523693084717
aF4.187899112701416
aF4.014262676239014
aF4.758510112762451
aI9999
aI9999
aaI-1
aa(lp1333
(lp1334
I9999
aI9999
aF5.593587398529053
aF4.238131046295166
aF4.057730674743652
aF4.803747653961182
aI9999
aI9999
aaI-1
aa(lp1335
(lp1336
I9999
aI9999
aF5.64103364944458
aF4.268462657928467
aF4.082878589630127
aF4.828306198120117
aI9999
aI9999
aaI-1
aa(lp1337
(lp1338
I9999
aI9999
aF5.684971332550049
aF4.2999444007873535
aF4.111770153045654
aF4.86083984375
aI9999
aI9999
aaI-1
aa(lp1339
(lp1340
I9999
aI9999
aF5.7208099365234375
aF4.325915813446045
aF4.135819911956787
aF4.8882222175598145
aI9999
aI9999
aaI-1
aa(lp1341
(lp1342
I9999
aI9999
aF5.744274616241455
aF4.340811252593994
aF4.148094654083252
aF4.900106430053711
aI9999
aI9999
aaI-1
aa(lp1343
(lp1344
I9999
aI9999
aF5.835180282592773
aF4.405158996582031
aF4.20659065246582
aF4.965219497680664
aI9999
aI9999
aaI-1
aa(lp1345
(lp1346
I9999
aI9999
aF5.94549036026001
aF4.493552207946777
aF4.294529438018799
aF5.073721408843994
aI9999
aI9999
aaI-1
aa(lp1347
(lp1348
I9999
aI9999
aF5.9480695724487305
aF4.490839004516602
aF4.288722991943359
aF5.062582015991211
aI9999
aI9999
aaI-1
aa(lp1349
(lp1350
I9999
aI9999
aF5.9488630294799805
aF4.493045330047607
aF4.291937351226807
aF5.067851543426514
aI9999
aI9999
aaI-1
aa(lp1351
(lp1352
I9999
aI9999
aF0.30049455165863037
aF0.2410372495651245
aF4.220538139343262
aF0.30049455165863037
aF0.2609018385410309
aI9999
aaI-1
aa(lp1353
(lp1354
I9999
aI9999
aF0.30049455165863037
aF0.24103723466396332
aF0.24103723466396332
aF0.30049455165863037
aI9999
aI9999
aaI-1
aa(lp1355
(lp1356
I9999
aI9999
aF4.572258472442627
aF3.4481263160705566
aF3.2902145385742188
aF3.8802831172943115
aI9999
aI9999
aaI1
aa(lp1357
(lp1358
I9999
aI9999
aF4.610414028167725
aF3.478317975997925
aF3.3199970722198486
aF3.9166998863220215
aI9999
aI9999
aaI1
aa(lp1359
(lp1360
I9999
aI9999
aF4.5114336013793945
aF3.4066500663757324
aF3.253661632537842
aF3.841195821762085
aI9999
aI9999
aaI1
aa(lp1361
(lp1362
I9999
aI9999
aF4.4444074630737305
aF3.3560338020324707
aF3.2053158283233643
aF3.784116506576538
aI9999
aI9999
aaI1
aa(lp1363
(lp1364
I9999
aI9999
aF4.399959087371826
aF3.324044942855835
aF3.175849199295044
aF3.750775098800659
aI9999
aI9999
aaI1
aa(lp1365
(lp1366
I9999
aI9999
aF4.360898971557617
aF3.295264720916748
aF3.1488547325134277
aF3.719564199447632
aF5.9906816482543945
aI9999
aaI1
aa(lp1367
(lp1368
I9999
aI9999
aF4.421964168548584
aF3.33994722366333
aF3.190544843673706
aF3.767467975616455
aI9999
aI9999
aaI1
aa(lp1369
(lp1370
I9999
aI9999
aF4.573145866394043
aF3.4562416076660156
aF3.3030898571014404
aF3.9023008346557617
aI9999
aI9999
aaI1
aa(lp1371
(lp1372
I9999
aI9999
aF4.755403518676758
aF3.599597215652466
aF3.443976640701294
aF4.073938369750977
aI9999
aI9999
aaI1
aa(lp1373
(lp1374
I9999
aI9999
aF4.738858222961426
aF3.5905699729919434
aF3.4377667903900146
aF4.069847106933594
aI9999
aI9999
aaI1
aa(lp1375
(lp1376
I9999
aI9999
aF4.75876522064209
aF3.605792999267578
aF3.452439069747925
aF4.087347030639648
aI9999
aI9999
aaI1
aa(lp1377
(lp1378
I9999
aI9999
aF4.776604652404785
aF3.6224074363708496
aF3.47050142288208
aF4.111626148223877
aI9999
aI9999
aaI1
aa(lp1379
(lp1380
I9999
aI9999
aF4.769381046295166
aF3.6223461627960205
aF3.4742231369018555
aF4.12113094329834
aI9999
aI9999
aaI1
aa(lp1381
(lp1382
I9999
aI9999
aF4.882969856262207
aF3.708996534347534
aF3.5575954914093018
aF4.220385551452637
aI9999
aI9999
aaI1
aa(lp1383
(lp1384
I9999
aI9999
aF5.051661968231201
aF3.871579170227051
aF3.7379908561706543
aF4.467860698699951
aI9999
aI9999
aaI-1
aa(lp1385
(lp1386
I9999
aI9999
aF5.067180633544922
aF3.8751437664031982
aF3.735504150390625
aF4.45673942565918
aI9999
aI9999
aaI-1
aa(lp1387
(lp1388
I9999
aI9999
aF5.079949855804443
aF3.8885791301727295
aF3.751067876815796
aF4.478898048400879
aI9999
aI9999
aaI-1
aa(lp1389
(lp1390
I9999
aI9999
aF5.000661373138428
aF0.24103723466396332
aF0.24103723466396332
aF0.30049455165863037
aI9999
aI9999
aaI-1
aa(lp1391
(lp1392
I9999
aI9999
aF4.806310176849365
aF3.678954601287842
aF3.5487420558929443
aF4.237157344818115
aI9999
aI9999
aaI1
aa(lp1393
(lp1394
I9999
aI9999
aF4.842996120452881
aF3.7109758853912354
aF3.582442045211792
aF4.2812676429748535
aI9999
aI9999
aaI1
aa(lp1395
(lp1396
I9999
aI9999
aF4.825375556945801
aF3.6976234912872314
aF3.5696587562561035
aF4.266138076782227
aI9999
aI9999
aaI1
aa(lp1397
(lp1398
I9999
aI9999
aF4.799384117126465
aF3.6811580657958984
aF3.556232213973999
aF4.2535014152526855
aI9999
aI9999
aaI1
aa(lp1399
(lp1400
I9999
aI9999
aF4.762551784515381
aF3.657400608062744
aF3.5365042686462402
aF4.234368801116943
aI9999
aI9999
aaI1
aa(lp1401
(lp1402
I9999
aI9999
aF4.750927448272705
aF3.64963436126709
aF3.5298285484313965
aF4.227531909942627
aI9999
aI9999
aaI1
aa(lp1403
(lp1404
I9999
aI9999
aF4.736372470855713
aF3.644193649291992
aF3.5287024974823
aF4.231936454772949
aI9999
aI9999
aaI1
aa(lp1405
(lp1406
I9999
aI9999
aF5.2375593185424805
aF3.7720556259155273
aF3.4863758087158203
aF3.9713990688323975
aF5.989903450012207
aI9999
aaI1
aa(lp1407
(lp1408
I9999
aI9999
aI9999
aF3.9510021209716797
aF3.4406349658966064
aF3.694406270980835
aF5.072100639343262
aI9999
aaI1
aa(lp1409
(lp1410
I9999
aI9999
aF5.902926445007324
aF3.8634285926818848
aF3.366407632827759
aF3.6167490482330322
aF4.96962833404541
aI9999
aaI1
aa(lp1411
(lp1412
I9999
aI9999
aF5.819928169250488
aF3.81138014793396
aF3.32218599319458
aF3.5703766345977783
aF4.908219814300537
aI9999
aaI1
aa(lp1413
(lp1414
I9999
aI9999
aF5.743170261383057
aF3.7645082473754883
aF3.283021926879883
aF3.529991865158081
aF4.856169700622559
aI9999
aaI1
aa(lp1415
(lp1416
I9999
aI9999
aF5.669613361358643
aF3.7123773097991943
aF3.235609531402588
aF3.4770500659942627
aF4.7793498039245605
aI9999
aaI1
aa(lp1417
(lp1418
I9999
aI9999
aF4.765633583068848
aF3.466092348098755
aF3.2247960567474365
aF3.6992154121398926
aF5.6474928855896
aI9999
aaI1
aa(lp1419
(lp1420
I9999
aF4.678292274475098
aF3.4445674419403076
aF3.2317631244659424
aF3.740835428237915
aF5.803221225738525
aI9999
aI9999
aaI1
aa(lp1421
(lp1422
F4.559239387512207
aF3.4397127628326416
aF3.283151388168335
aF3.873234987258911
aI9999
aI9999
aI9999
aI9999
aaI1
aa(lp1423
(lp1424
F3.6850788593292236
aF3.642826795578003
aF4.477412700653076
aI9999
aI9999
aI9999
aI9999
aI9999
aaI1
aa(lp1425
(lp1426
F3.9612877368927
aF3.911874771118164
aF4.802149772644043
aI9999
aI9999
aI9999
aI9999
aI9999
aaI1
aa(lp1427
(lp1428
F4.164752006530762
aF4.049079895019531
aF4.87894344329834
aI9999
aI9999
aI9999
aI9999
aI9999
aaI-1
aa(lp1429
(lp1430
F4.592016696929932
aF4.086077690124512
aF4.478810787200928
aI9999
aI9999
aI9999
aI9999
aI9999
aaI-1
aa(lp1431
(lp1432
F4.696240425109863
aF4.114828586578369
aF4.443952560424805
aI9999
aI9999
aI9999
aI9999
aI9999
aaI-1
aa(lp1433
(lp1434
F4.600650787353516
aF4.042137622833252
aF4.3768157958984375
aI9999
aI9999
aI9999
aI9999
aI9999
aaI-1
aa(lp1435
(lp1436
F4.208460330963135
aF3.96893572807312
aF4.620144367218018
aI9999
aI9999
aI9999
aI9999
aI9999
aaI-1
aa(lp1437
(lp1438
F3.9007275104522705
aF4.146886825561523
aF5.611263275146484
aI9999
aI9999
aI9999
aI9999
aI9999
aaI-1
aa(lp1439
(lp1440
F3.8538880348205566
aF3.9050612449645996
aF4.9502787590026855
aI9999
aI9999
aI9999
aI9999
aI9999
aaI-1
aa(lp1441
(lp1442
F3.926135301589966
aF3.7703099250793457
aF4.478736877441406
aI9999
aI9999
aI9999
aI9999
aI9999
aaI-1
aa(lp1443
(lp1444
F5.220282554626465
aF3.8991005420684814
aF3.695054531097412
aF4.324398517608643
aI9999
aI9999
aI9999
aI9999
aaI-1
aa(lp1445
(lp1446
I9999
aF5.497128486633301
aF3.9089226722717285
aF3.582714080810547
aF4.045579433441162
aI9999
aI9999
aI9999
aaI-1
aa(lp1447
(lp1448
I9999
aI9999
aF4.000043869018555
aF3.3394973278045654
aF3.452497959136963
aF4.493699550628662
aI9999
aI9999
aaI-1
aa(lp1449
(lp1450
I9999
aI9999
aF3.6339101791381836
aF3.0326080322265625
aF3.134139060974121
aF4.077430725097656
aI9999
aI9999
aaI1
aa(lp1451
(lp1452
I9999
aF5.635930061340332
aF3.3931453227996826
aF2.8274343013763428
aF2.9183201789855957
aF3.790071487426758
aI9999
aI9999
aaI1
aa(lp1453
(lp1454
I9999
aF5.4185638427734375
aF3.248899459838867
aF2.701678991317749
aF2.783607006072998
aF3.6065948009490967
aI9999
aI9999
aaI1
aa(lp1455
(lp1456
I9999
aF5.425878047943115
aF3.240629196166992
aF2.689584970474243
aF2.766557455062866
aF3.5765981674194336
aI9999
aI9999
aaI1
aa(lp1457
(lp1458
I9999
aF3.8516647815704346
aF2.8481948375701904
aF2.6802401542663574
aF3.112563133239746
aF4.85704231262207
aI9999
aI9999
aaI1
aa(lp1459
(lp1460
F3.6797566413879395
aF2.8293561935424805
aF2.7383408546447754
aF3.2821881771087646
aF5.438314914703369
aI9999
aI9999
aI9999
aaI1
aa(lp1461
(lp1462
F3.4796738624572754
aF2.9611823558807373
aF3.113295078277588
aF4.146823883056641
aI9999
aI9999
aI9999
aI9999
aaI1
aa(lp1463
(lp1464
F3.761962652206421
aF3.2025680541992188
aF3.3681721687316895
aF4.488350868225098
aI9999
aI9999
aI9999
aI9999
aaI1
aa(lp1465
(lp1466
F3.9538259506225586
aF3.368436813354492
aF3.545008659362793
aF4.728470802307129
aI9999
aI9999
aI9999
aI9999
aaI1
aa(lp1467
(lp1468
F4.025566101074219
aF3.4329724311828613
aF3.616157293319702
aF4.829433441162109
aI9999
aI9999
aI9999
aI9999
aaI1
aa(lp1469
(lp1470
F4.025698661804199
aF3.436793327331543
aF3.6236977577209473
aF4.846124172210693
aI9999
aI9999
aI9999
aI9999
aaI1
aa(lp1471
(lp1472
F4.194180011749268
aF3.5809154510498047
aF3.775930643081665
aF5.050225734710693
aI9999
aI9999
aI9999
aF0.23500007390975952
aaI1
aa(lp1473
(lp1474
F4.425248622894287
aF3.796016216278076
aF4.019813060760498
aF5.408940315246582
aI9999
aI9999
aI9999
aI9999
aaI-1
aa(lp1475
(lp1476
F4.402123928070068
aF3.705763816833496
aF3.858874559402466
aF5.0720062255859375
aI9999
aI9999
aI9999
aI9999
aaI-1
aa(lp1477
(lp1478
F4.667670249938965
aF3.692237377166748
aF3.6516621112823486
aF4.490901470184326
aI9999
aI9999
aI9999
aI9999
aaI-1
aa(lp1479
(lp1480
F4.624413013458252
aF3.602769374847412
aF3.5215651988983154
aF4.270248889923096
aI9999
aI9999
aI9999
aI9999
aaI-1
aa(lp1481
(lp1482
F4.433248519897461
aF3.4604902267456055
aF3.3874619007110596
aF4.114799499511719
aI9999
aI9999
aI9999
aI9999
aaI1
aa(lp1483
(lp1484
F0.23500007390975952
aF3.2945711612701416
aF3.2312235832214355
aF3.9339776039123535
aI9999
aI9999
aI9999
aI9999
aaI1
aa(lp1485
(lp1486
F3.6430585384368896
aF2.849724769592285
aF2.794118881225586
aF3.4006283283233643
aF5.8123579025268555
aI9999
aI9999
aI9999
aaI1
aa(lp1487
(lp1488
F3.5336103439331055
aF2.7693917751312256
aF2.7193384170532227
aF3.3154220581054688
aF5.687479019165039
aI9999
aI9999
aI9999
aaI1
aa(lp1489
(lp1490
F3.398374080657959
aF2.6633098125457764
aF2.615103244781494
aF3.188234806060791
aF5.468924045562744
aI9999
aI9999
aI9999
aaI1
aa(lp1491
(lp1492
F3.2851808071136475
aF2.5751211643218994
aF2.528904438018799
aF3.0837197303771973
aF5.291708469390869
aI9999
aI9999
aI9999
aaI1
aa(lp1493
(lp1494
F4.246171474456787
aF2.790048360824585
aF2.4365932941436768
aF2.6233229637145996
aF3.6158852577209473
aI9999
aI9999
aI9999
aaI1
aa(lp1495
(lp1496
F5.802736759185791
aF3.034712314605713
aF2.37243390083313
aF2.325073480606079
aF2.8282196521759033
aF4.82849645614624
aI9999
aI9999
aaI-1
aa(lp1497
(lp1498
I9999
aF3.5019748210906982
aF2.432215929031372
aF2.1959171295166016
aF2.4418375492095947
aF3.5381500720977783
aI9999
aI9999
aaI-1
aa(lp1499
(lp1500
I9999
aF4.0153679847717285
aF2.4296536445617676
aF2.029707193374634
aF2.0995254516601562
aF2.734694004058838
aF5.4737067222595215
aI9999
aaI-1
aa(lp1501
(lp1502
I9999
aF3.6974856853485107
aF2.2391598224639893
aF1.871354103088379
aF1.9364264011383057
aF2.5234837532043457
aF5.057387828826904
aI9999
aaI-1
aa(lp1503
(lp1504
I9999
aF3.798362970352173
aF2.295745611190796
aF1.9167454242706299
aF1.9816991090774536
aF2.579505681991577
aF5.154151439666748
aI9999
aaI-1
aa(lp1505
(lp1506
I9999
aF4.233353137969971
aF2.551886558532715
aF2.1277599334716797
aF2.197335720062256
aF2.855774402618408
aF5.6833367347717285
aI9999
aaI-1
aa(lp1507
(lp1508
I9999
aF4.8840203285217285
aF2.9353580474853516
aF2.443845748901367
aF2.5205185413360596
aF3.270167350769043
aI9999
aI9999
aaI1
aa(lp1509
(lp1510
I9999
aF5.557791709899902
aF3.331631660461426
aF2.7701666355133057
aF2.853898286819458
aF3.697195529937744
aI9999
aI9999
aaI1
aa(lp1511
(lp1512
I9999
aF5.683861255645752
aF3.389108896255493
aF2.8105177879333496
aF2.8889355659484863
aF3.731348752975464
aI9999
aI9999
aaI1
aa(lp1513
(lp1514
I9999
aF5.96504545211792
aF3.537769079208374
aF2.9260690212249756
aF3.0009710788726807
aF3.8645567893981934
aI9999
aI9999
aaI1
aa(lp1515
(lp1516
I9999
aI9999
aF3.7034575939178467
aF3.053100347518921
aF3.1225991249084473
aF4.006559371948242
aI9999
aI9999
aaI1
aa(lp1517
(lp1518
I9999
aI9999
aF3.870044231414795
aF3.182421922683716
aF3.247988224029541
aF4.155921936035156
aI9999
aI9999
aaI1
aa(lp1519
(lp1520
I9999
aI9999
aF4.054762840270996
aF3.324732780456543
aF3.3850622177124023
aF4.317739486694336
aI9999
aI9999
aaI1
aa(lp1521
(lp1522
I9999
aI9999
aF4.263259410858154
aF3.484642744064331
aF3.5385375022888184
aF4.498128890991211
aI9999
aI9999
aaI1
aa(lp1523
(lp1524
I9999
aI9999
aF4.63627290725708
aF3.7872183322906494
aF3.8438453674316406
aF4.8830389976501465
aI9999
aI9999
aaI-1
aa(lp1525
(lp1526
I9999
aI9999
aF4.787145137786865
aF3.8951961994171143
aF3.9406843185424805
aF4.985323429107666
aI9999
aI9999
aaI-1
aa(lp1527
(lp1528
I9999
aI9999
aF4.962666988372803
aF4.0301361083984375
aF4.070662021636963
aF5.139209747314453
aI9999
aI9999
aaI-1
aa(lp1529
(lp1530
I9999
aI9999
aF5.114830017089844
aF4.145238399505615
aF4.179932117462158
aF5.265953063964844
aI9999
aI9999
aaI-1
aa(lp1531
(lp1532
I9999
aI9999
aF5.244847774505615
aF4.247708320617676
aF4.280872821807861
aF5.389303684234619
aI9999
aI9999
aaI-1
aa(lp1533
(lp1534
I9999
aI9999
aF5.715816974639893
aF4.613105773925781
aF4.636017322540283
aF5.815605640411377
aI9999
aI9999
aaI-1
aa(lp1535
(lp1536
I9999
aI9999
aI9999
aF5.233368873596191
aF5.286714553833008
aI9999
aI9999
aI9999
aaI-1
aa(lp1537
(lp1538
I9999
aI9999
aI9999
aF5.149766445159912
aF5.190435409545898
aI9999
aI9999
aI9999
aaI-1
aa(lp1539
(lp1540
I9999
aI9999
aI9999
aF5.240334510803223
aF5.28482723236084
aI9999
aI9999
aI9999
aaI-1
aa(lp1541
(lp1542
I9999
aI9999
aI9999
aF5.298902988433838
aF5.344841003417969
aI9999
aI9999
aI9999
aaI-1
aa(lp1543
(lp1544
I9999
aI9999
aI9999
aF5.334466457366943
aF5.3824687004089355
aI9999
aI9999
aI9999
aaI-1
aa(lp1545
(lp1546
I9999
aI9999
aI9999
aF5.375550270080566
aF5.426625728607178
aI9999
aI9999
aI9999
aaI-1
aa(lp1547
(lp1548
I9999
aI9999
aI9999
aF5.395812034606934
aF5.448233604431152
aI9999
aI9999
aI9999
aaI-1
aa(lp1549
(lp1550
I9999
aI9999
aI9999
aF5.482476711273193
aF5.417781829833984
aI9999
aI9999
aI9999
aaI-1
aa(lp1551
(lp1552
I9999
aI9999
aI9999
aF5.521340370178223
aF5.401504993438721
aI9999
aI9999
aI9999
aaI-1
aa(lp1553
(lp1554
I9999
aI9999
aI9999
aF5.50609016418457
aF5.367532730102539
aI9999
aI9999
aI9999
aaI-1
aa(lp1555
(lp1556
I9999
aI9999
aI9999
aF5.4767608642578125
aF5.341361045837402
aI9999
aI9999
aI9999
aaI-1
aa(lp1557
(lp1558
I9999
aI9999
aI9999
aF5.4444661140441895
aF5.315958023071289
aI9999
aI9999
aI9999
aaI-1
aa(lp1559
(lp1560
I9999
aI9999
aI9999
aF5.59516716003418
aF5.462276458740234
aI9999
aI9999
aI9999
aaI-1
aa(lp1561
(lp1562
I9999
aI9999
aI9999
aF5.775135040283203
aF5.649466514587402
aI9999
aI9999
aI9999
aaI-1
aa(lp1563
(lp1564
I9999
aI9999
aI9999
aF5.720901012420654
aF5.59798002243042
aI9999
aI9999
aI9999
aaI-1
aa(lp1565
(lp1566
I9999
aI9999
aF0.30049455165863037
aF0.24103723466396332
aF0.24103723466396332
aF0.30049455165863037
aI9999
aI9999
aaI-1
aa(lp1567
(lp1568
I9999
aI9999
aF0.30049455165863037
aF0.24103723466396332
aF0.24103723466396332
aF0.30049455165863037
aI9999
aI9999
aaI-1
aa(lp1569
(lp1570
I9999
aI9999
aI9999
aF0.24103723466396332
aF0.24103723466396332
aF5.917697429656982
aI9999
aI9999
aaI-1
aa(lp1571
(lp1572
I9999
aI9999
aF0.3004944622516632
aF0.24103716015815735
aF0.24103716015815735
aI9999
aI9999
aI9999
aaI-1
aa(lp1573
(lp1574
F5.60119104385376
aF4.07056999206543
aF0.3004944622516632
aF4.33953332901001
aI9999
aI9999
aI9999
aI9999
aaI-1
aa(lp1575
(lp1576
F3.515484094619751
aF3.3937795162200928
aF4.055883884429932
aI9999
aI9999
aI9999
aI9999
aI9999
aaI1
aa(lp1577
(lp1578
F0.23500008881092072
aF0.2609018385410309
aF5.001566410064697
aI9999
aI9999
aI9999
aI9999
aI9999
aaI1
aa(lp1579
(lp1580
F2.430070400238037
aF2.8193063735961914
aF4.391714096069336
aI9999
aI9999
aI9999
aI9999
aI9999
aaI-1
aa(lp1581
(lp1582
F2.5746312141418457
aF3.0014967918395996
aF4.71682596206665
aI9999
aI9999
aI9999
aI9999
aI9999
aaI-1
aa(lp1583
(lp1584
F2.5719852447509766
aF3.0107321739196777
aF4.767223834991455
aI9999
aI9999
aI9999
aI9999
aI9999
aaI-1
aa(lp1585
(lp1586
F2.541961431503296
aF2.797299385070801
aF3.9865403175354004
aI9999
aI9999
aI9999
aI9999
aI9999
aaI-1
aa(lp1587
(lp1588
F2.8659801483154297
aF2.510268449783325
aF2.7101402282714844
aF3.7509899139404297
aI9999
aI9999
aI9999
aI9999
aaI-1
aa(lp1589
(lp1590
F4.6996307373046875
aF2.9036970138549805
aF2.4518697261810303
aF2.5600595474243164
aF3.3773441314697266
aI9999
aI9999
aI9999
aaI-1
aa(lp1591
(lp1592
I9999
aF5.188950061798096
aF2.914531707763672
aF2.349567174911499
aF2.3590526580810547
aF2.955843448638916
aF5.382518291473389
aI9999
aaI-1
aa(lp1593
(lp1594
I9999
aI9999
aF2.7938530445098877
aF2.0549304485321045
aF1.9265875816345215
aF2.2283220291137695
aF3.4519846439361572
aI9999
aaI-1
aa(lp1595
(lp1596
I9999
aF5.119942665100098
aF2.2613861560821533
aF1.6622300148010254
aF1.5577282905578613
aF1.8008347749710083
aF2.7873659133911133
aI9999
aaI-1
aa(lp1597
(lp1598
I9999
aF4.304815769195557
aF1.8805780410766602
aF1.3774296045303345
aF1.2876964807510376
aF1.4847520589828491
aF2.287381410598755
aI9999
aaI-1
aa(lp1599
(lp1600
I9999
aF3.98297119140625
aF1.726338267326355
aF1.261292815208435
aF1.1771087646484375
aF1.3547435998916626
aF2.0802924633026123
aI9999
aaI-1
aa(lp1601
(lp1602
I9999
aF4.064092636108398
aF1.7464357614517212
aF1.2725305557250977
aF1.1854135990142822
aF1.3616135120391846
aF2.0835864543914795
aI9999
aaI-1
aa(lp1603
(lp1604
I9999
aF0.2609018385410309
aF0.30049455165863037
aF0.24103723466396332
aF1.0651390552520752
aF0.30049455165863037
aF0.2609018087387085
aI9999
aaI-1
aa(lp1605
(lp1606
I9999
aF2.7424428462982178
aF1.1510649919509888
aF0.8326494097709656
aF0.7718563675880432
aF0.8819737434387207
aF1.3373987674713135
aF4.680067539215088
aaI-1
aa(lp1607
(lp1608
I9999
aF3.477297067642212
aF1.4499218463897705
aF1.0467487573623657
aF0.969031810760498
aF1.1057196855545044
aF1.6725983619689941
aF5.778406620025635
aaI-1
aa(lp1609
(lp1610
I9999
aF3.9324967861175537
aF1.6233559846878052
aF1.1684454679489136
aF1.0795314311981201
aF1.2292109727859497
aF1.852664589881897
aI9999
aaI-1
aa(lp1611
(lp1612
I9999
aF4.551501274108887
aF1.8540821075439453
aF1.3293017148971558
aF1.2249646186828613
aF1.3910167217254639
aF2.086801290512085
aI9999
aaI-1
aa(lp1613
(lp1614
I9999
aF5.105316162109375
aF2.0595271587371826
aF1.472429871559143
aF1.3543330430984497
aF1.5349323749542236
aF2.295103073120117
aI9999
aaI-1
aa(lp1615
(lp1616
I9999
aI9999
aF2.384644031524658
aF1.6213933229446411
aF1.4448291063308716
aF1.5859264135360718
aF2.251206398010254
aF5.88327169418335
aaI-1
aa(lp1617
(lp1618
I9999
aI9999
aF3.596315383911133
aF1.9824870824813843
aF1.5848737955093384
aF1.5806093215942383
aF1.9639147520065308
aF3.509307622909546
aaI-1
aa(lp1619
(lp1620
I9999
aI9999
aF4.952129364013672
aF2.3113903999328613
aF1.7308751344680786
aF1.6433045864105225
aF1.9271137714385986
aF3.0616872310638428
aaI-1
aa(lp1621
(lp1622
I9999
aI9999
aF5.240861415863037
aF2.3806636333465576
aF1.7662220001220703
aF1.6658827066421509
aF1.9394515752792358
aF3.040290594100952
aaI-1
aa(lp1623
(lp1624
I9999
aI9999
aF5.5200324058532715
aF2.4745988845825195
aF1.827836036682129
aF1.7187052965164185
aF1.9942278861999512
aF3.107111692428589
aaI-1
aa(lp1625
(lp1626
I9999
aI9999
aF5.802412033081055
aF2.5807108879089355
aF1.9012583494186401
aF1.7845215797424316
aF2.06653094291687
aF3.2083795070648193
aaI-1
aa(lp1627
(lp1628
I9999
aI9999
aF5.458595275878906
aF2.4409375190734863
aF1.8014805316925049
aF1.6929506063461304
aF1.9631143808364868
aF3.0551764965057373
aaI-1
aa(lp1629
(lp1630
I9999
aI9999
aF3.500063419342041
aF1.580248236656189
aF1.1699962615966797
aF1.101953387260437
aF1.2809067964553833
aF0.23500007390975952
aaI-1
aa(lp1631
(lp1632
I9999
aI9999
aF1.4578567743301392
aF0.640282392501831
aF0.4697800278663635
aF0.4396929144859314
aF0.5076228976249695
aF0.78380286693573
aaI-1
aa(lp1633
(lp1634
I9999
aI9999
aF1.9389954805374146
aF0.8470036387443542
aF0.6203750371932983
aF0.5799521803855896
aF0.6686916947364807
aF1.0301458835601807
aaI-1
aa(lp1635
(lp1636
F0.23500007390975952
aI9999
aF2.367643356323242
aF1.0183488130569458
aF0.7422235608100891
aF0.6915437579154968
aF0.7944977283477783
aF1.2162054777145386
aaI-1
aa(lp1637
(lp1638
I9999
aI9999
aF3.515094757080078
aF1.5239652395248413
aF1.113532543182373
aF1.0392721891403198
aF1.1961826086044312
aF1.8370193243026733
aaI-1
aa(lp1639
(lp1640
I9999
aI9999
aF3.424497604370117
aF1.475333333015442
aF1.0758508443832397
aF1.0027414560317993
aF1.1524571180343628
aF1.7653281688690186
aaI-1
aa(lp1641
(lp1642
I9999
aI9999
aF3.589034080505371
aF1.543755292892456
aF1.1251827478408813
aF1.0483646392822266
aF1.2044535875320435
aF1.8437947034835815
aaI-1
aa(lp1643
(lp1644
I9999
aI9999
aF3.6895060539245605
aF1.5820202827453613
aF1.1519458293914795
aF1.0725888013839722
aF1.231410264968872
aF1.88271164894104
aaI-1
aa(lp1645
(lp1646
I9999
aI9999
aF3.7614333629608154
aF1.6173182725906372
aF1.1786649227142334
aF1.0981099605560303
aF1.261500358581543
aF1.930840015411377
aaI-1
aa(lp1647
(lp1648
I9999
aI9999
aF2.8174545764923096
aF1.4755504131317139
aF1.1542006731033325
aF1.1316601037979126
aF1.3772780895233154
aF2.353947401046753
aaI-1
aa(lp1649
(lp1650
I9999
aF3.198986291885376
aF1.5628948211669922
aF1.189801812171936
aF1.1431012153625488
aF1.3585933446884155
aF2.2140636444091797
aI9999
aaI-1
aa(lp1651
(lp1652
I9999
aF2.7926132678985596
aF1.5329300165176392
aF1.223200798034668
aF1.2181024551391602
aF1.5107249021530151
aF2.688567876815796
aI9999
aaI-1
aa(lp1653
(lp1654
I9999
aF3.025653600692749
aF1.6608781814575195
aF1.3253065347671509
aF1.319790005683899
aF1.6368522644042969
aF2.9130759239196777
aI9999
aaI-1
aa(lp1655
(lp1656
I9999
aF3.1885671615600586
aF1.75917387008667
aF1.406864047050476
aF1.4034883975982666
aF1.7444723844528198
aF3.1196951866149902
aI9999
aaI-1
aa(lp1657
(lp1658
I9999
aF0.2609018385410309
aF0.30049458146095276
aF1.3263987302780151
aF1.3254148960113525
aF1.6508320569992065
aF0.2609018385410309
aI9999
aaI-1
aa(lp1659
(lp1660
I9999
aF2.200289011001587
aF1.214835524559021
aF0.9718608856201172
aF0.9697842597961426
aF1.2057915925979614
aF2.15792179107666
aI9999
aaI-1
aa(lp1661
(lp1662
I9999
aF2.4145827293395996
aF1.3390976190567017
aF1.0733840465545654
aF1.072780728340149
aF1.3364698886871338
aF2.402273416519165
aI9999
aaI-1
aa(lp1663
(lp1664
I9999
aF2.0731313228607178
aF1.1553544998168945
aF0.9281179904937744
aF0.9292178153991699
aF1.160144567489624
aF2.095569133758545
aI9999
aaI-1
aa(lp1665
(lp1666
I9999
aF1.1765868663787842
aF0.6533876061439514
aF0.5240472555160522
aF0.5240007638931274
aF0.6531853079795837
aF1.1756391525268555
aI9999
aaI-1
aa(lp1667
(lp1668
I9999
aF1.2509287595748901
aF0.6973734498023987
aF0.5602965354919434
aF0.5610277056694031
aF0.7005575895309448
aF1.2658445835113525
aI9999
aaI-1
aa(lp1669
(lp1670
I9999
aF1.1181145906448364
aF0.6251044869422913
aF0.5028735995292664
aF0.5040470361709595
aF0.630215048789978
aF1.142055869102478
aI9999
aaI-1
aa(lp1671
(lp1672
I9999
aF1.0316203832626343
aF0.5771629810333252
aF0.4644566476345062
aF0.4656619429588318
aF0.5824123024940491
aF1.056212067604065
aI9999
aaI-1
aa(lp1673
(lp1674
I9999
aF0.2609018385410309
aF0.3053399324417114
aF0.24617066979408264
aF0.24717997014522552
aF0.3097357153892517
aF0.2609018385410309
aI9999
aaI-1
aa(lp1675
(lp1676
I9999
aF0.5120363235473633
aF0.2842407822608948
aF0.22793661057949066
aF0.22788618505001068
aF0.28402116894721985
aF0.5110076069831848
aI9999
aaI-1
aa(lp1677
(lp1678
I9999
aF1.0231746435165405
aF0.5682501196861267
aF0.45578306913375854
aF0.4557587206363678
aF0.5681442022323608
aF1.0226783752441406
aI9999
aaI-1
aa(lp1679
(lp1680
I9999
aF2.3332600593566895
aF1.2941936254501343
aF1.037460207939148
aF1.0369330644607544
aF1.2918978929519653
aF2.3225064277648926
aI9999
aaI-1
aa(lp1681
(lp1682
I9999
aF3.8239033222198486
aF0.300494521856308
aF0.24103718996047974
aF1.732567310333252
aF0.3004944920539856
aF3.941986560821533
aI9999
aaI-1
aa(lp1683
(lp1684
I9999
aF3.3672213554382324
aF1.8895751237869263
aF1.52266263961792
aF1.5282984972000122
aF1.9141204357147217
aF3.482224941253662
aI9999
aaI-1
aa(lp1685
(lp1686
I9999
aF3.2507436275482178
aF1.8293110132217407
aF1.475966215133667
aF1.4829473495483398
aF1.8597160577774048
aF3.393223285675049
aI9999
aaI-1
aa(lp1687
(lp1688
I9999
aF3.1261796951293945
aF1.7621381282806396
aF1.422842025756836
aF1.4304474592208862
aF1.7952631711959839
aF3.2814228534698486
aI9999
aaI-1
aa(lp1689
(lp1690
I9999
aF3.099724769592285
aF1.7470601797103882
aF1.4106061458587646
aF1.4180965423583984
aF1.7796834707260132
aF3.252615213394165
aI9999
aaI-1
aa(lp1691
(lp1692
I9999
aF3.084933042526245
aF1.7380805015563965
aF1.4031198024749756
aF1.4103777408599854
aF1.769691824913025
aF3.233077049255371
aI9999
aaI-1
aa(lp1693
(lp1694
I9999
aF2.9399192333221436
aF1.6593471765518188
aF1.3406527042388916
aF1.3484803438186646
aF1.6934400796890259
aF3.0997138023376465
aI9999
aaI-1
aa(lp1695
(lp1696
I9999
aF3.1542136669158936
aF1.775171160697937
aF1.4323502779006958
aF1.4391790628433228
aF1.80491304397583
aF3.2935867309570312
aI9999
aaI-1
aa(lp1697
(lp1698
I9999
aF4.5174360275268555
aF2.5306074619293213
aF2.0376107692718506
aF2.04384708404541
aF2.557767868041992
aF4.64468240737915
aI9999
aaI-1
aa(lp1699
(lp1700
I9999
aI9999
aF4.026722431182861
aF3.242659330368042
aF3.2529056072235107
aF4.071347236633301
aI9999
aI9999
aaI1
aa(lp1701
(lp1702
I9999
aI9999
aF0.30049455165863037
aF0.24103723466396332
aF4.262080192565918
aF0.30049455165863037
aI9999
aI9999
aaI-1
aa(lp1703
(lp1704
I9999
aI9999
aF5.180269718170166
aF4.181461334228516
aF4.202705383300781
aF5.272794246673584
aI9999
aI9999
aaI-1
aa(lp1705
(lp1706
I9999
aI9999
aF5.357969760894775
aF4.32343864440918
aF4.344213008880615
aF5.448450565338135
aI9999
aI9999
aaI-1
aa(lp1707
(lp1708
I9999
aI9999
aF5.49359130859375
aF4.4324631690979
aF4.453426837921143
aF5.584896564483643
aI9999
aI9999
aaI-1
aa(lp1709
(lp1710
I9999
aI9999
aF5.576970100402832
aF4.498254299163818
aF4.518322944641113
aF5.664374351501465
aI9999
aI9999
aaI-1
aa(lp1711
(lp1712
I9999
aI9999
aF5.6876935958862305
aF4.586112976074219
aF4.605395317077637
aF5.771674633026123
aI9999
aI9999
aaI-1
aa(lp1713
(lp1714
I9999
aI9999
aF5.788732051849365
aF4.668859481811523
aF4.689528942108154
aF5.878753185272217
aI9999
aI9999
aaI-1
aa(lp1715
(lp1716
I9999
aI9999
aF5.883470058441162
aF4.746667385101318
aF4.7688188552856445
aF5.979947566986084
aI9999
aI9999
aaI-1
aa(lp1717
(lp1718
I9999
aI9999
aF5.954849720001221
aF4.802234649658203
aF4.823001861572266
aI9999
aI9999
aI9999
aaI-1
aa(lp1719
(lp1720
I9999
aI9999
aI9999
aF4.867852210998535
aF4.888443470001221
aI9999
aI9999
aI9999
aaI-1
aa(lp1721
(lp1722
I9999
aI9999
aI9999
aF4.924946308135986
aF4.945496082305908
aI9999
aI9999
aI9999
aaI-1
aa(lp1723
(lp1724
I9999
aI9999
aI9999
aF4.97023868560791
aF4.993250370025635
aI9999
aI9999
aI9999
aaI-1
aa(lp1725
(lp1726
I9999
aI9999
aI9999
aF4.980557441711426
aF5.006364345550537
aI9999
aI9999
aI9999
aaI-1
aa(lp1727
(lp1728
I9999
aI9999
aI9999
aF5.10208797454834
aF5.128377437591553
aI9999
aI9999
aI9999
aaI-1
aa(lp1729
(lp1730
I9999
aI9999
aI9999
aF5.341639995574951
aF5.368086338043213
aI9999
aI9999
aI9999
aaI-1
aa(lp1731
(lp1732
I9999
aI9999
aI9999
aF5.672821521759033
aF5.7097368240356445
aI9999
aI9999
aI9999
aaI-1
aa(lp1733
(lp1734
I9999
aI9999
aI9999
aF5.627396583557129
aF5.6654510498046875
aI9999
aI9999
aI9999
aaI-1
aa(lp1735
(lp1736
I9999
aI9999
aI9999
aF5.64316463470459
aF5.684558868408203
aI9999
aI9999
aI9999
aaI-1
aa(lp1737
(lp1738
I9999
aI9999
aI9999
aF5.6409502029418945
aF5.681682109832764
aI9999
aI9999
aI9999
aaI-1
aa(lp1739
(lp1740
I9999
aI9999
aI9999
aF5.642292499542236
aF5.686153888702393
aI9999
aI9999
aI9999
aaI-1
aa(lp1741
(lp1742
I9999
aI9999
aI9999
aF5.648007869720459
aF5.69475793838501
aI9999
aI9999
aI9999
aaI-1
aa(lp1743
(lp1744
I9999
aI9999
aI9999
aF5.648340225219727
aF5.69806432723999
aI9999
aI9999
aI9999
aaI-1
aa(lp1745
(lp1746
I9999
aI9999
aI9999
aF5.65818452835083
aF5.709902763366699
aI9999
aI9999
aI9999
aaI-1
aa(lp1747
(lp1748
I9999
aI9999
aI9999
aF5.672562122344971
aF5.7272725105285645
aI9999
aI9999
aI9999
aaI-1
aa(lp1749
(lp1750
I9999
aI9999
aI9999
aF5.656545162200928
aF5.716407775878906
aI9999
aI9999
aI9999
aaI-1
aa(lp1751
(lp1752
I9999
aI9999
aI9999
aF5.749587535858154
aF5.809792995452881
aI9999
aI9999
aI9999
aaI-1
aa(lp1753
(lp1754
I9999
aI9999
aI9999
aI9999
aI9999
aI9999
aI9999
aI9999
aaI-1
aa(lp1755
(lp1756
I9999
aI9999
aI9999
aI9999
aI9999
aI9999
aI9999
aI9999
aaI-1
aa(lp1757
(lp1758
I9999
aI9999
aI9999
aI9999
aI9999
aI9999
aI9999
aI9999
aaI-1
aa(lp1759
(lp1760
I9999
aI9999
aI9999
aI9999
aI9999
aI9999
aI9999
aI9999
aaI-1
aa(lp1761
(lp1762
I9999
aF0.2609018385410309
aI9999
aI9999
aI9999
aI9999
aF0.2609018385410309
aI9999
aaI-1
aa(lp1763
(lp1764
I9999
aI9999
aI9999
aF5.693857192993164
aF5.77044677734375
aI9999
aI9999
aI9999
aaI-1
aa(lp1765
(lp1766
I9999
aI9999
aI9999
aF5.509389400482178
aF5.579184055328369
aI9999
aI9999
aI9999
aaI-1
aa(lp1767
(lp1768
I9999
aI9999
aI9999
aF5.545119285583496
aF5.619579792022705
aI9999
aI9999
aI9999
aaI-1
aa(lp1769
(lp1770
I9999
aI9999
aI9999
aF5.534991264343262
aF5.612146377563477
aI9999
aI9999
aI9999
aaI-1
aa(lp1771
(lp1772
I9999
aI9999
aI9999
aF5.5879693031311035
aF5.665130138397217
aI9999
aI9999
aI9999
aaI-1
aa(lp1773
(lp1774
I9999
aI9999
aI9999
aF5.644457817077637
aF5.727626800537109
aI9999
aI9999
aI9999
aaI-1
aa(lp1775
(lp1776
I9999
aI9999
aI9999
aF5.614426612854004
aF5.697327136993408
aI9999
aI9999
aI9999
aaI-1
aa(lp1777
(lp1778
I9999
aI9999
aI9999
aF5.8131103515625
aF5.892938613891602
aI9999
aI9999
aI9999
aaI-1
aa(lp1779
(lp1780
I9999
aI9999
aI9999
aF5.959548473358154
aI9999
aI9999
aI9999
aI9999
aaI-1
aa(lp1781
(lp1782
I9999
aI9999
aI9999
aF5.914004325866699
aI9999
aI9999
aI9999
aI9999
aaI-1
aa(lp1783
(lp1784
I9999
aI9999
aI9999
aF5.9492998123168945
aI9999
aI9999
aI9999
aI9999
aaI-1
aa(lp1785
(lp1786
I9999
aI9999
aI9999
aF5.978604316711426
aI9999
aI9999
aI9999
aI9999
aaI-1
aa(lp1787
(lp1788
I9999
aI9999
aI9999
aI9999
aI9999
aI9999
aI9999
aI9999
aaI-1
aa(lp1789
(lp1790
I9999
aI9999
aI9999
aI9999
aI9999
aI9999
aI9999
aI9999
aaI-1
aa(lp1791
(lp1792
I9999
aI9999
aI9999
aI9999
aI9999
aI9999
aI9999
aI9999
aaI-1
aa(lp1793
(lp1794
I9999
aI9999
aI9999
aF0.24103723466396332
aF0.24103723466396332
aI9999
aI9999
aI9999
aaI-1
aa(lp1795
(lp1796
I9999
aI9999
aI9999
aF5.778505325317383
aF5.862475395202637
aI9999
aI9999
aI9999
aaI-1
aa(lp1797
(lp1798
I9999
aI9999
aI9999
aF5.7535810470581055
aF5.840302467346191
aI9999
aI9999
aI9999
aaI-1
aa(lp1799
(lp1800
I9999
aI9999
aI9999
aF5.704011917114258
aF5.790107250213623
aI9999
aI9999
aI9999
aaI-1
aa(lp1801
(lp1802
I9999
aI9999
aI9999
aF5.666970252990723
aF5.753488540649414
aI9999
aI9999
aI9999
aaI-1
aa(lp1803
(lp1804
I9999
aI9999
aI9999
aF5.6286845207214355
aF5.713865756988525
aI9999
aI9999
aI9999
aaI-1
aa(lp1805
(lp1806
I9999
aI9999
aI9999
aF5.61460542678833
aF5.7002363204956055
aI9999
aI9999
aI9999
aaI-1
aa(lp1807
(lp1808
I9999
aI9999
aI9999
aF5.581475734710693
aF5.666590213775635
aI9999
aI9999
aI9999
aaI-1
aa(lp1809
(lp1810
I9999
aI9999
aI9999
aF5.568636417388916
aF5.651540279388428
aI9999
aI9999
aI9999
aaI-1
aa(lp1811
(lp1812
I9999
aI9999
aI9999
aF5.565858364105225
aF5.647569179534912
aI9999
aI9999
aI9999
aaI-1
aa(lp1813
(lp1814
I9999
aI9999
aI9999
aF5.612411022186279
aF5.691555500030518
aI9999
aI9999
aI9999
aaI-1
aa(lp1815
(lp1816
I9999
aI9999
aI9999
aF5.707235813140869
aF5.788135528564453
aI9999
aI9999
aI9999
aaI-1
aa(lp1817
(lp1818
I9999
aI9999
aI9999
aF5.810678005218506
aF5.895633697509766
aI9999
aI9999
aI9999
aaI-1
aa(lp1819
(lp1820
I9999
aI9999
aI9999
aF5.879453182220459
aF5.960012912750244
aI9999
aI9999
aI9999
aaI-1
aa(lp1821
(lp1822
I9999
aI9999
aI9999
aF5.988458633422852
aI9999
aI9999
aI9999
aI9999
aaI-1
aa(lp1823
(lp1824
I9999
aI9999
aI9999
aF5.984039783477783
aI9999
aI9999
aI9999
aI9999
aaI-1
aa(lp1825
(lp1826
I9999
aI9999
aI9999
aF5.9948601722717285
aI9999
aI9999
aI9999
aI9999
aaI-1
aa(lp1827
(lp1828
I9999
aI9999
aF0.30049455165863037
aF5.969127178192139
aI9999
aF0.30049455165863037
aI9999
aI9999
aaI-1
aa(lp1829
(lp1830
I9999
aI9999
aI9999
aF5.74827766418457
aF5.824273109436035
aI9999
aI9999
aI9999
aaI-1
aa(lp1831
(lp1832
I9999
aI9999
aI9999
aF5.804386615753174
aF5.882289409637451
aI9999
aI9999
aI9999
aaI-1
aa(lp1833
(lp1834
I9999
aI9999
aI9999
aF5.793255805969238
aF5.868999004364014
aI9999
aI9999
aI9999
aaI-1
aa(lp1835
(lp1836
I9999
aI9999
aI9999
aF5.783878803253174
aF5.861085414886475
aI9999
aI9999
aI9999
aaI-1
aa(lp1837
(lp1838
I9999
aI9999
aI9999
aF5.779787063598633
aF5.859227657318115
aI9999
aI9999
aI9999
aaI-1
aa(lp1839
(lp1840
I9999
aI9999
aI9999
aF5.783967018127441
aF5.8666815757751465
aI9999
aI9999
aI9999
aaI-1
aa(lp1841
(lp1842
I9999
aI9999
aI9999
aF5.79736328125
aF5.882809162139893
aI9999
aI9999
aI9999
aaI-1
aa(lp1843
(lp1844
I9999
aI9999
aI9999
aF5.816286087036133
aF5.903157711029053
aI9999
aI9999
aI9999
aaI-1
aa(lp1845
(lp1846
I9999
aI9999
aI9999
aF5.832912921905518
aF5.921712875366211
aI9999
aI9999
aI9999
aaI-1
aa(lp1847
(lp1848
I9999
aI9999
aI9999
aF5.84155797958374
aF5.933846473693848
aI9999
aI9999
aI9999
aaI-1
aa(lp1849
(lp1850
I9999
aI9999
aI9999
aF5.843767166137695
aF5.933758735656738
aI9999
aI9999
aI9999
aaI-1
aa(lp1851
(lp1852
I9999
aI9999
aI9999
aF5.785675048828125
aI9999
aI9999
aI9999
aI9999
aaI-1
aa(lp1853
(lp1854
I9999
aI9999
aF5.810821533203125
aI9999
aI9999
aI9999
aI9999
aI9999
aaI-1
aa(lp1855
(lp1856
I9999
aI9999
aF5.914268970489502
aI9999
aI9999
aI9999
aI9999
aI9999
aaI-1
aa(lp1857
(lp1858
I9999
aI9999
aI9999
aI9999
aI9999
aI9999
aI9999
aI9999
aaI-1
aa(lp1859
(lp1860
I9999
aI9999
aI9999
aI9999
aI9999
aI9999
aI9999
aI9999
aaI-1
aa(lp1861
(lp1862
I9999
aI9999
aI9999
aI9999
aI9999
aI9999
aI9999
aI9999
aaI-1
aa(lp1863
(lp1864
I9999
aI9999
aI9999
aI9999
aI9999
aI9999
aI9999
aI9999
aaI-1
aa(lp1865
(lp1866
I9999
aI9999
aI9999
aI9999
aI9999
aI9999
aI9999
aI9999
aaI-1
aa(lp1867
(lp1868
I9999
aI9999
aI9999
aI9999
aI9999
aI9999
aI9999
aI9999
aaI-1
aa(lp1869
(lp1870
I9999
aI9999
aI9999
aI9999
aI9999
aI9999
aI9999
aI9999
aaI-1
aa(lp1871
(lp1872
I9999
aI9999
aI9999
aI9999
aI9999
aI9999
aI9999
aI9999
aaI-1
aa(lp1873
(lp1874
I9999
aI9999
aI9999
aI9999
aI9999
aI9999
aI9999
aI9999
aaI-1
aa(lp1875
(lp1876
I9999
aI9999
aI9999
aI9999
aI9999
aI9999
aI9999
aI9999
aaI-1
aa(lp1877
(lp1878
I9999
aI9999
aI9999
aI9999
aI9999
aI9999
aI9999
aI9999
aaI-1
aa(lp1879
(lp1880
I9999
aF0.26090186834335327
aI9999
aI9999
aI9999
aF0.30049455165863037
aF0.2609018087387085
aI9999
aaI-1
aa(lp1881
(lp1882
I9999
aF0.2609018087387085
aF0.30049455165863037
aF0.24103723466396332
aF0.24103723466396332
aF0.30049455165863037
aI9999
aI9999
aaI-1
aa(lp1883
(lp1884
I9999
aI9999
aF5.222796440124512
aF4.614285469055176
aF5.022921562194824
aI9999
aI9999
aI9999
aaI-1
aa(lp1885
(lp1886
I9999
aI9999
aF5.248081207275391
aF4.642071723937988
aF5.058884143829346
aI9999
aI9999
aI9999
aaI-1
aa(lp1887
(lp1888
I9999
aI9999
aF5.332552433013916
aF4.712917804718018
aF5.1320319175720215
aI9999
aI9999
aI9999
aaI-1
aa(lp1889
(lp1890
I9999
aI9999
aF5.540478706359863
aF4.89478063583374
aF5.328075408935547
aI9999
aI9999
aI9999
aaI-1
aa(lp1891
(lp1892
I9999
aI9999
aF5.7972893714904785
aF5.128785133361816
aF5.590271472930908
aI9999
aI9999
aI9999
aaI-1
aa(lp1893
(lp1894
I9999
aI9999
aF5.741909027099609
aF5.081244945526123
aF5.539982318878174
aI9999
aI9999
aI9999
aaI-1
aa(lp1895
(lp1896
I9999
aI9999
aF5.745269298553467
aF5.086326599121094
aF5.547741889953613
aI9999
aI9999
aI9999
aaI-1
aa(lp1897
(lp1898
I9999
aI9999
aF5.748635768890381
aF5.089431285858154
aF5.5512590408325195
aI9999
aI9999
aI9999
aaI-1
aa(lp1899
(lp1900
I9999
aI9999
aF5.744693756103516
aF5.087000370025635
aF5.549724578857422
aI9999
aI9999
aI9999
aaI-1
aa(lp1901
(lp1902
I9999
aI9999
aF5.743600845336914
aF5.086465835571289
aF5.549597263336182
aI9999
aI9999
aI9999
aaI-1
aa(lp1903
(lp1904
I9999
aI9999
aF5.734168529510498
aF5.080070972442627
aF5.544686794281006
aI9999
aI9999
aI9999
aaI-1
aa(lp1905
(lp1906
I9999
aI9999
aF5.7220845222473145
aF5.066677570343018
aF5.527234077453613
aI9999
aI9999
aI9999
aaI-1
aa(lp1907
(lp1908
I9999
aI9999
aF5.689045429229736
aF5.038939476013184
aF5.498573303222656
aI9999
aI9999
aI9999
aaI-1
aa(lp1909
(lp1910
I9999
aI9999
aF5.662233352661133
aF5.01522970199585
aF5.472742557525635
aI9999
aI9999
aI9999
aaI-1
aa(lp1911
(lp1912
I9999
aI9999
aF5.641445636749268
aF4.996816158294678
aF5.4526472091674805
aI9999
aI9999
aI9999
aaI-1
aa(lp1913
(lp1914
I9999
aI9999
aF5.622766017913818
aF4.981096267700195
aF5.436364650726318
aI9999
aI9999
aI9999
aaI-1
aa(lp1915
(lp1916
I9999
aI9999
aF5.608654975891113
aF4.969156742095947
aF5.423925399780273
aI9999
aI9999
aI9999
aaI-1
aa(lp1917
(lp1918
I9999
aI9999
aF5.598330974578857
aF4.960111141204834
aF5.414159297943115
aI9999
aI9999
aI9999
aaI-1
aa(lp1919
(lp1920
I9999
aI9999
aF5.53228759765625
aF4.902263641357422
aF5.351720809936523
aI9999
aI9999
aI9999
aaI-1
aa(lp1921
(lp1922
F0.2349999099969864
aF0.26090165972709656
aF0.30049437284469604
aF4.982475757598877
aI9999
aI9999
aI9999
aI9999
aaI-1
aa(lp1923
(lp1924
I9999
aF4.718160629272461
aF4.296093940734863
aF4.818458557128906
aI9999
aI9999
aI9999
aI9999
aaI-1
aa(lp1925
(lp1926
I9999
aF4.8238067626953125
aF4.391180038452148
aF4.9238362312316895
aI9999
aI9999
aI9999
aI9999
aaI-1
aa(lp1927
(lp1928
I9999
aF4.840667247772217
aF4.411921501159668
aF4.953281402587891
aI9999
aI9999
aI9999
aI9999
aaI-1
aa(lp1929
(lp1930
I9999
aF4.855038166046143
aF4.42808723449707
aF4.974960803985596
aI9999
aI9999
aI9999
aI9999
aaI-1
aa(lp1931
(lp1932
I9999
aF5.362752914428711
aF4.474246978759766
aF4.623034477233887
aI9999
aI9999
aI9999
aI9999
aaI-1
aa(lp1933
(lp1934
I9999
aF5.4827775955200195
aF4.456002235412598
aF4.5037055015563965
aF5.690594673156738
aI9999
aI9999
aI9999
aaI-1
aa(lp1935
(lp1936
I9999
aI9999
aF4.771435260772705
aF4.294394016265869
aF4.760368824005127
aI9999
aI9999
aI9999
aaI-1
aa(lp1937
(lp1938
I9999
aI9999
aF5.197772979736328
aF4.231624126434326
aF4.282965660095215
aF5.421459674835205
aI9999
aI9999
aaI-1
aa(lp1939
(lp1940
I9999
aI9999
aF5.065126419067383
aF4.1117448806762695
aF4.151769161224365
aF5.239480018615723
aI9999
aI9999
aaI-1
aa(lp1941
(lp1942
I9999
aI9999
aF4.993758678436279
aF4.056509494781494
aF4.098232746124268
aF5.175518989562988
aI9999
aI9999
aaI-1
aa(lp1943
(lp1944
I9999
aI9999
aF4.872409820556641
aF3.9799726009368896
aF4.039365291595459
aF5.131227970123291
aI9999
aI9999
aaI-1
aa(lp1945
(lp1946
I9999
aI9999
aF4.928055763244629
aF3.9813485145568848
aF4.004410743713379
aF5.028502464294434
aI9999
aI9999
aaI-1
aa(lp1947
(lp1948
I9999
aI9999
aF4.957638740539551
aF3.996558666229248
aF4.012634754180908
aF5.027655124664307
aI9999
aI9999
aaI-1
aa(lp1949
(lp1950
I9999
aI9999
aF5.027865886688232
aF4.044754981994629
aF4.054211139678955
aF5.069048881530762
aI9999
aI9999
aaI-1
aa(lp1951
(lp1952
I9999
aI9999
aF5.10554313659668
aF4.102556228637695
aF4.108366966247559
aF5.1308488845825195
aI9999
aI9999
aaI-1
aa(lp1953
(lp1954
I9999
aI9999
aF5.205880165100098
aF4.178483009338379
aF4.180622100830078
aF5.215196132659912
aI9999
aI9999
aaI-1
aa(lp1955
(lp1956
I9999
aI9999
aF5.31657075881958
aF4.261097431182861
aF4.258285045623779
aF5.304324150085449
aI9999
aI9999
aaI-1
aa(lp1957
(lp1958
I9999
aI9999
aF5.425563812255859
aF4.342984199523926
aF4.335751056671143
aF5.3940629959106445
aI9999
aI9999
aaI-1
aa(lp1959
(lp1960
I9999
aI9999
aF5.5147905349731445
aF4.40928316116333
aF4.397860050201416
aF5.465041637420654
aI9999
aI9999
aaI-1
aa(lp1961
(lp1962
I9999
aI9999
aF5.725297451019287
aF4.571521282196045
aF4.554861068725586
aF5.65273904800415
aI9999
aI9999
aaI-1
aa(lp1963
(lp1964
I9999
aI9999
aI9999
aF4.807534217834473
aF4.787064552307129
aF5.936391353607178
aI9999
aI9999
aaI-1
aa(lp1965
(lp1966
I9999
aI9999
aI9999
aF5.12652063369751
aF5.107060432434082
aI9999
aI9999
aI9999
aaI-1
aa(lp1967
(lp1968
I9999
aI9999
aI9999
aF5.133105754852295
aF5.108700275421143
aI9999
aI9999
aI9999
aaI-1
aa(lp1969
(lp1970
I9999
aI9999
aI9999
aF5.176220893859863
aF5.149535655975342
aI9999
aI9999
aI9999
aaI-1
aa(lp1971
(lp1972
I9999
aI9999
aI9999
aF5.322516918182373
aF5.292179107666016
aI9999
aI9999
aI9999
aaI-1
aa(lp1973
(lp1974
I9999
aI9999
aI9999
aF5.480122089385986
aF5.453545570373535
aI9999
aI9999
aI9999
aaI-1
aa(lp1975
(lp1976
I9999
aI9999
aI9999
aF5.458741664886475
aF5.431354999542236
aI9999
aI9999
aI9999
aaI-1
aa(lp1977
(lp1978
I9999
aI9999
aI9999
aF5.4797186851501465
aF5.450989723205566
aI9999
aI9999
aI9999
aaI-1
aa(lp1979
(lp1980
I9999
aI9999
aI9999
aF5.511007785797119
aF5.4821648597717285
aI9999
aI9999
aI9999
aaI-1
aa(lp1981
(lp1982
I9999
aI9999
aI9999
aF5.549964427947998
aF5.523523330688477
aI9999
aI9999
aI9999
aaI-1
aa(lp1983
(lp1984
I9999
aI9999
aI9999
aF5.6858954429626465
aF5.656167507171631
aI9999
aI9999
aI9999
aaI-1
aa(lp1985
(lp1986
I9999
aI9999
aI9999
aF5.849185466766357
aF5.822845935821533
aI9999
aI9999
aI9999
aaI-1
aa(lp1987
(lp1988
I9999
aI9999
aI9999
aF5.923564434051514
aF5.914611339569092
aI9999
aI9999
aI9999
aaI-1
aa(lp1989
(lp1990
I9999
aI9999
aI9999
aF5.940611839294434
aF5.926339626312256
aI9999
aI9999
aI9999
aaI-1
aa(lp1991
(lp1992
I9999
aI9999
aI9999
aF5.949335098266602
aF5.937998294830322
aI9999
aI9999
aI9999
aaI-1
aa(lp1993
(lp1994
I9999
aI9999
aI9999
aF5.961789608001709
aF5.950972080230713
aI9999
aI9999
aI9999
aaI-1
aa(lp1995
(lp1996
I9999
aI9999
aI9999
aF5.973857879638672
aF5.965161323547363
aI9999
aI9999
aI9999
aaI-1
aa(lp1997
(lp1998
I9999
aI9999
aI9999
aF5.989817142486572
aF5.980186939239502
aI9999
aI9999
aI9999
aaI-1
aa(lp1999
(lp2000
I9999
aI9999
aI9999
aI9999
aI9999
aI9999
aI9999
aI9999
aaI-1
aa.