(lp0
(lp1
(lp2
I9999
aI9999
aF4.5959153175354
aF4.274495601654053
aF4.90154504776001
aI9999
aI9999
aI9999
aaI-1
aa(lp3
(lp4
I9999
aI9999
aF5.094089508056641
aF4.358047008514404
aF4.603775501251221
aI9999
aI9999
aI9999
aaI-1
aa(lp5
(lp6
I9999
aI9999
aI9999
aF5.086349964141846
aF4.467354774475098
aF4.835676193237305
aI9999
aI9999
aaI-1
aa(lp7
(lp8
I9999
aI9999
aI9999
aI9999
aF5.025903701782227
aF4.528965950012207
aF5.026541233062744
aI9999
aaI-1
aa(lp9
(lp10
I9999
aI9999
aI9999
aI9999
aI9999
aF4.932724475860596
aF4.562872409820557
aF5.202140808105469
aaI-1
aa(lp11
(lp12
I9999
aI9999
aI9999
aI9999
aI9999
aF5.260713577270508
aF4.474648952484131
aF4.702451229095459
aaI-1
aa(lp13
(lp14
I9999
aI9999
aF0.30049455165863037
aF0.24103721976280212
aF0.24103723466396332
aF0.30049455165863037
aF4.19116735458374
aF4.4200215339660645
aaI-1
aa(lp15
(lp16
I9999
aI9999
aF0.300494521856308
aF0.24103721976280212
aF0.24103721976280212
aF0.30049455165863037
aF3.913771390914917
aF4.132973670959473
aaI-1
aa(lp17
(lp18
I9999
aI9999
aF0.30049455165863037
aF0.24103721976280212
aF0.24103721976280212
aF0.300494521856308
aF3.6180224418640137
aF3.823972225189209
aaI-1
aa(lp19
(lp20
F0.23500005900859833
aF0.2609018087387085
aF0.3004944622516632
aI9999
aI9999
aF4.6727190017700195
aF4.010544300079346
aF4.249151229858398
aaI-1
aa(lp21
(lp22
F0.23500005900859833
aF0.2609018087387085
aF0.300494521856308
aI9999
aI9999
aI9999
aF5.517529487609863
aF5.8394880294799805
aaI-1
aa(lp23
(lp24
F0.23500007390975952
aF0.2609018385410309
aF0.300494521856308
aI9999
aI9999
aI9999
aI9999
aI9999
aaI-1
aa(lp25
(lp26
F0.23500007390975952
aF0.2609018385410309
aF0.300494521856308
aI9999
aI9999
aI9999
aI9999
aI9999
aaI-1
aa(lp27
(lp28
I9999
aI9999
aI9999
aI9999
aF0.2410372644662857
aF0.30049458146095276
aF0.2609017789363861
aI9999
aaI-1
aa(lp29
(lp30
I9999
aI9999
aF0.30049455165863037
aF0.24103723466396332
aF0.24103721976280212
aF0.300494521856308
aF0.2609018087387085
aI9999
aaI-1
aa(lp31
(lp32
I9999
aI9999
aI9999
aI9999
aI9999
aI9999
aI9999
aI9999
aaI-1
aa(lp33
(lp34
I9999
aI9999
aI9999
aI9999
aI9999
aI9999
aI9999
aI9999
aaI-1
aa(lp35
(lp36
I9999
aI9999
aI9999
aI9999
aI9999
aI9999
aI9999
aI9999
aaI-1
aa(lp37
(lp38
I9999
aI9999
aI9999
aI9999
aF0.24103699624538422
aF0.3004942238330841
aF0.26090171933174133
aI9999
aaI-1
aa(lp39
(lp40
I9999
aI9999
aI9999
aI9999
aI9999
aI9999
aI9999
aI9999
aaI-1
aa(lp41
(lp42
I9999
aI9999
aI9999
aI9999
aI9999
aI9999
aI9999
aI9999
aaI-1
aa(lp43
(lp44
I9999
aI9999
aI9999
aI9999
aI9999
aI9999
aI9999
aI9999
aaI-1
aa(lp45
(lp46
I9999
aI9999
aI9999
aI9999
aI9999
aF0.300494521856308
aI9999
aI9999
aaI-1
aa(lp47
(lp48
I9999
aI9999
aF0.300494521856308
aI9999
aI9999
aI9999
aI9999
aI9999
aaI-1
aa(lp49
(lp50
I9999
aI9999
aI9999
aI9999
aI9999
aI9999
aF0.2609018385410309
aF0.23500007390975952
aaI-1
aa(lp51
(lp52
I9999
aI9999
aI9999
aI9999
aI9999
aI9999
aI9999
aI9999
aaI-1
aa(lp53
(lp54
I9999
aI9999
aF0.300494521856308
aI9999
aI9999
aI9999
aI9999
aI9999
aaI-1
aa(lp55
(lp56
I9999
aI9999
aI9999
aI9999
aI9999
aI9999
aI9999
aF0.23500008881092072
aaI-1
aa(lp57
(lp58
I9999
aI9999
aF0.300494521856308
aI9999
aI9999
aI9999
aI9999
aI9999
aaI-1
aa(lp59
(lp60
I9999
aI9999
aI9999
aI9999
aI9999
aI9999
aI9999
aI9999
aaI-1
aa(lp61
(lp62
I9999
aI9999
aI9999
aI9999
aI9999
aF0.300494521856308
aF0.26090186834335327
aF0.2350001037120819
aaI-1
aa(lp63
(lp64
I9999
aI9999
aI9999
aI9999
aI9999
aI9999
aI9999
aI9999
aaI-1
aa(lp65
(lp66
I9999
aI9999
aF0.300494521856308
aI9999
aI9999
aI9999
aI9999
aI9999
aaI-1
aa(lp67
(lp68
I9999
aI9999
aI9999
aI9999
aI9999
aI9999
aI9999
aF0.23500008881092072
aaI-1
aa(lp69
(lp70
F5.285369396209717
aI9999
aI9999
aI9999
aI9999
aI9999
aI9999
aI9999
aaI-1
aa(lp71
(lp72
F4.9833083152771
aF5.847416400909424
aI9999
aI9999
aI9999
aI9999
aI9999
aI9999
aaI-1
aa(lp73
(lp74
F4.224369049072266
aF4.967213153839111
aF0.300494521856308
aI9999
aI9999
aI9999
aI9999
aI9999
aaI-1
aa(lp75
(lp76
I9999
aI9999
aI9999
aI9999
aI9999
aI9999
aI9999
aF0.23500008881092072
aaI1
aa(lp77
(lp78
F3.0297231674194336
aF3.5637712478637695
aF5.694148063659668
aI9999
aI9999
aI9999
aI9999
aI9999
aaI1
aa(lp79
(lp80
F2.8736491203308105
aF0.26090186834335327
aF0.3004944920539856
aI9999
aI9999
aF0.3004944920539856
aI9999
aI9999
aaI1
aa(lp81
(lp82
F2.8011856079101562
aF0.2609018385410309
aF0.30049455165863037
aI9999
aI9999
aF0.30049455165863037
aI9999
aI9999
aaI1
aa(lp83
(lp84
F2.6960577964782715
aF0.2609018385410309
aF0.30049455165863037
aI9999
aI9999
aF0.30049455165863037
aI9999
aI9999
aaI1
aa(lp85
(lp86
F2.507357597351074
aF2.9450933933258057
aI9999
aI9999
aI9999
aI9999
aI9999
aI9999
aaI1
aa(lp87
(lp88
F2.274392604827881
aF2.680805206298828
aF4.299990177154541
aI9999
aI9999
aI9999
aI9999
aI9999
aaI-1
aa(lp89
(lp90
F2.1562790870666504
aF2.5417113304138184
aF4.077264785766602
aI9999
aI9999
aI9999
aI9999
aI9999
aaI-1
aa(lp91
(lp92
F2.2973484992980957
aF2.0291926860809326
aF2.2083826065063477
aF3.0937132835388184
aI9999
aI9999
aI9999
aI9999
aaI-1
aa(lp93
(lp94
F2.3778765201568604
aF1.8960893154144287
aF1.8871300220489502
aF2.3388562202453613
aF4.156022548675537
aI9999
aI9999
aI9999
aaI-1
aa(lp95
(lp96
F3.0299646854400635
aF2.408031702041626
aF2.390352964401245
aF2.952960729598999
aF5.210164546966553
aI9999
aF0.2609018385410309
aF0.23500007390975952
aaI1
aa(lp97
(lp98
F3.9340736865997314
aF0.2609018087387085
aF0.30049455165863037
aF0.24103721976280212
aF0.24103721976280212
aI9999
aI9999
aI9999
aaI1
aa(lp99
(lp100
F3.905038356781006
aF3.1040163040161133
aF3.0816426277160645
aF3.807584524154663
aI9999
aI9999
aI9999
aI9999
aaI1
aa(lp101
(lp102
I9999
aF4.72607946395874
aF3.3609092235565186
aF3.0805935859680176
aF3.4787747859954834
aF5.169974327087402
aI9999
aI9999
aaI1
aa(lp103
(lp104
I9999
aI9999
aF3.7092902660369873
aF3.069446325302124
aF3.149336099624634
aF4.057859420776367
aI9999
aI9999
aaI1
aa(lp105
(lp106
I9999
aI9999
aF3.6014792919158936
aF2.9701268672943115
aF3.0386831760406494
aF3.900482416152954
aI9999
aI9999
aaI1
aa(lp107
(lp108
I9999
aI9999
aF3.6388485431671143
aF2.994441032409668
aF3.057966709136963
aF0.300494521856308
aI9999
aI9999
aaI1
aa(lp109
(lp110
I9999
aI9999
aF3.8324949741363525
aF3.1450536251068115
aF3.2043113708496094
aF0.300494521856308
aI9999
aI9999
aaI1
aa(lp111
(lp112
I9999
aF0.2609018385410309
aF3.9487693309783936
aF3.2325193881988525
aF3.2866811752319336
aF4.184830188751221
aI9999
aI9999
aaI1
aa(lp113
(lp114
I9999
aI9999
aF3.968959093093872
aF3.2395575046539307
aF3.2858495712280273
aF4.170677661895752
aI9999
aI9999
aaI1
aa(lp115
(lp116
I9999
aI9999
aF4.09544038772583
aF3.328817367553711
aF3.3647377490997314
aF4.251925945281982
aI9999
aI9999
aaI1
aa(lp117
(lp118
I9999
aI9999
aF4.210819244384766
aF3.410959005355835
aF3.438159465789795
aF4.329299449920654
aI9999
aI9999
aaI1
aa(lp119
(lp120
I9999
aI9999
aF4.341067790985107
aF3.5058188438415527
aF3.5250604152679443
aF4.424873352050781
aI9999
aI9999
aaI1
aa(lp121
(lp122
I9999
aI9999
aF4.459554672241211
aF3.5900356769561768
aF3.600426197052002
aF4.504807472229004
aI9999
aI9999
aaI1
aa(lp123
(lp124
I9999
aI9999
aF4.575911998748779
aF3.6726315021514893
aF3.6743433475494385
aF4.583366870880127
aI9999
aI9999
aaI1
aa(lp125
(lp126
I9999
aI9999
aF5.062582015991211
aF4.008930206298828
aF3.9682140350341797
aF4.885209560394287
aI9999
aI9999
aaI-1
aa(lp127
(lp128
F0.23500007390975952
aF0.2609018385410309
aF0.300494521856308
aF4.432135581970215
aF4.403919219970703
aI9999
aI9999
aI9999
aaI-1
aa(lp129
(lp130
I9999
aI9999
aF5.623918056488037
aF4.466669082641602
aF4.431624889373779
aI9999
aI9999
aI9999
aaI-1
aa(lp131
(lp132
I9999
aI9999
aF5.786649703979492
aF4.585660457611084
aF4.541697025299072
aI9999
aI9999
aI9999
aaI-1
aa(lp133
(lp134
I9999
aI9999
aF0.30049455165863037
aF4.128292560577393
aF4.089827537536621
aF0.30049455165863037
aF0.26090186834335327
aI9999
aaI-1
aa(lp135
(lp136
I9999
aI9999
aF4.04427433013916
aF3.1853857040405273
aF3.1398372650146484
aF3.8457930088043213
aI9999
aI9999
aaI1
aa(lp137
(lp138
I9999
aI9999
aF4.217817306518555
aF3.320197343826294
aF3.271287441253662
aF4.0046796798706055
aI9999
aI9999
aaI1
aa(lp139
(lp140
I9999
aI9999
aF4.183224678039551
aF3.2864391803741455
aF3.233055830001831
aF3.9505622386932373
aI9999
aI9999
aaI1
aa(lp141
(lp142
I9999
aI9999
aF4.23160457611084
aF3.320056200027466
aF3.262795925140381
aI9999
aI9999
aI9999
aaI1
aa(lp143
(lp144
F0.23500008881092072
aF0.2609018385410309
aF4.293849945068359
aF3.367924451828003
aF3.309105157852173
aI9999
aI9999
aI9999
aaI1
aa(lp145
(lp146
I9999
aI9999
aF4.3407721519470215
aF3.4030516147613525
aF3.3423500061035156
aI9999
aI9999
aI9999
aaI1
aa(lp147
(lp148
I9999
aI9999
aF4.350616455078125
aF3.4098260402679443
aF3.3482906818389893
aI9999
aI9999
aI9999
aaI1
aa(lp149
(lp150
I9999
aI9999
aF4.345943450927734
aF3.4087343215942383
aF3.3491642475128174
aI9999
aI9999
aI9999
aaI1
aa(lp151
(lp152
I9999
aI9999
aF0.300494521856308
aF0.24103720486164093
aF3.266089916229248
aI9999
aI9999
aI9999
aaI1
aa(lp153
(lp154
I9999
aI9999
aF0.300494521856308
aF0.24103720486164093
aF3.0045535564422607
aF3.6635074615478516
aI9999
aI9999
aaI1
aa(lp155
(lp156
F4.227960109710693
aF2.9471378326416016
aF2.6669094562530518
aF2.9724137783050537
aF4.322999477386475
aI9999
aI9999
aI9999
aaI1
aa(lp157
(lp158
F3.6001508235931396
aF2.732177495956421
aF2.6189632415771484
aF3.104609251022339
aF0.24103720486164093
aF0.300494521856308
aF0.26090189814567566
aI9999
aaI-1
aa(lp159
(lp160
F3.7204806804656982
aF2.8209269046783447
aF2.7022459506988525
aF3.2009291648864746
aF5.182926177978516
aI9999
aI9999
aI9999
aaI-1
aa(lp161
(lp162
F3.770181179046631
aF2.866671562194824
aF2.751701593399048
aF3.267119884490967
aF5.3138909339904785
aI9999
aI9999
aI9999
aaI1
aa(lp163
(lp164
F3.7733967304229736
aF2.876504421234131
aF2.7663393020629883
aF3.291562557220459
aF5.375973701477051
aI9999
aI9999
aI9999
aaI1
aa(lp165
(lp166
F3.7317421436309814
aF2.8522427082061768
aF2.7483129501342773
aF3.2773687839508057
aF5.375968933105469
aI9999
aI9999
aI9999
aaI1
aa(lp167
(lp168
F2.703329563140869
aF2.8096628189086914
aF3.683350086212158
aI9999
aI9999
aI9999
aI9999
aI9999
aaI1
aa(lp169
(lp170
F2.8996169567108154
aF3.9994473457336426
aI9999
aI9999
aI9999
aI9999
aI9999
aI9999
aaI1
aa(lp171
(lp172
F3.076554298400879
aF2.755990505218506
aF3.0408220291137695
aF4.351583003997803
aI9999
aI9999
aI9999
aI9999
aaI1
aa(lp173
(lp174
F3.083594560623169
aF2.7338638305664062
aF2.9860289096832275
aF4.206281661987305
aI9999
aI9999
aI9999
aI9999
aaI1
aa(lp175
(lp176
F2.8177154064178467
aF2.656498670578003
aF3.0912864208221436
aF4.841742992401123
aI9999
aI9999
aI9999
aI9999
aaI1
aa(lp177
(lp178
F2.732421636581421
aF2.576167106628418
aF2.9979116916656494
aF4.695793151855469
aI9999
aI9999
aI9999
aI9999
aaI1
aa(lp179
(lp180
F2.6592636108398438
aF2.512233018875122
aF2.92997407913208
aF4.607946395874023
aI9999
aI9999
aI9999
aI9999
aaI1
aa(lp181
(lp182
F1.9339014291763306
aF1.8256969451904297
aF2.1276376247406006
aF3.3413944244384766
aI9999
aI9999
aI9999
aI9999
aaI-1
aa(lp183
(lp184
F1.0648337602615356
aF1.0070304870605469
aF1.1758618354797363
aF1.8532617092132568
aI9999
aF0.3004944920539856
aF0.2609018087387085
aF0.23500004410743713
aaI-1
aa(lp185
(lp186
F2.2842352390289307
aF2.1682162284851074
aF2.542090654373169
aF4.036981105804443
aI9999
aF0.300494521856308
aF0.2609018385410309
aI9999
aaI-1
aa(lp187
(lp188
F0.23500008881092072
aF0.2609018385410309
aF3.5463414192199707
aF5.661984443664551
aI9999
aI9999
aI9999
aI9999
aaI1
aa(lp189
(lp190
F2.7709414958953857
aF2.6512253284454346
aF0.30049455165863037
aF0.24103721976280212
aF0.24103721976280212
aF0.300494521856308
aI9999
aI9999
aaI1
aa(lp191
(lp192
F2.206515073776245
aF0.2609018087387085
aF0.300494521856308
aF0.24103721976280212
aF0.24103723466396332
aF0.30049455165863037
aI9999
aI9999
aaI-1
aa(lp193
(lp194
F1.7735220193862915
aF1.6928220987319946
aF1.9971057176589966
aF3.2087903022766113
aI9999
aI9999
aI9999
aI9999
aaI-1
aa(lp195
(lp196
F1.694218397140503
aF1.6183744668960571
aF1.9109361171722412
aF3.0754082202911377
aI9999
aI9999
aI9999
aI9999
aaI-1
aa(lp197
(lp198
F1.6068731546401978
aF1.5351967811584473
aF1.813064694404602
aF2.918945789337158
aI9999
aI9999
aI9999
aI9999
aaI-1
aa(lp199
(lp200
F1.612430453300476
aF1.5458741188049316
aF1.8328810930252075
aF0.24103721976280212
aF0.24103723466396332
aF0.30049455165863037
aI9999
aI9999
aaI-1
aa(lp201
(lp202
F1.4367142915725708
aF1.3700907230377197
aF1.6147072315216064
aF2.589353322982788
aI9999
aI9999
aI9999
aI9999
aaI-1
aa(lp203
(lp204
F0.7237635254859924
aF0.6913386583328247
aF0.8162825703620911
aF1.3136024475097656
aI9999
aI9999
aI9999
aI9999
aaI-1
aa(lp205
(lp206
F0.821506917476654
aF0.763856053352356
aF0.8756682276725769
aF1.3353557586669922
aF4.817668914794922
aI9999
aI9999
aI9999
aaI-1
aa(lp207
(lp208
F2.316864013671875
aF2.2337546348571777
aF2.6655569076538086
aF4.378182888031006
aI9999
aF0.300494521856308
aF0.2609018385410309
aF0.23500007390975952
aaI-1
aa(lp209
(lp210
F4.088186264038086
aF3.9180121421813965
aF4.643509864807129
aI9999
aI9999
aI9999
aF0.2609018385410309
aF0.23500007390975952
aaI-1
aa(lp211
(lp212
F5.197381019592285
aI9999
aI9999
aI9999
aI9999
aI9999
aI9999
aI9999
aaI-1
aa(lp213
(lp214
I9999
aI9999
aI9999
aI9999
aI9999
aI9999
aI9999
aI9999
aaI-1
aa(lp215
(lp216
F5.566112995147705
aI9999
aI9999
aI9999
aI9999
aI9999
aI9999
aI9999
aaI-1
aa(lp217
(lp218
F5.754413604736328
aI9999
aI9999
aI9999
aI9999
aI9999
aI9999
aI9999
aaI-1
aa(lp219
(lp220
I9999
aI9999
aI9999
aI9999
aI9999
aI9999
aI9999
aI9999
aaI-1
aa(lp221
(lp222
I9999
aI9999
aI9999
aI9999
aI9999
aI9999
aI9999
aI9999
aaI-1
aa(lp223
(lp224
I9999
aI9999
aI9999
aI9999
aI9999
aI9999
aI9999
aI9999
aaI-1
aa(lp225
(lp226
I9999
aI9999
aI9999
aI9999
aI9999
aI9999
aI9999
aI9999
aaI-1
aa(lp227
(lp228
I9999
aI9999
aI9999
aI9999
aI9999
aI9999
aI9999
aI9999
aaI-1
aa(lp229
(lp230
I9999
aI9999
aI9999
aI9999
aI9999
aI9999
aI9999
aI9999
aaI-1
aa(lp231
(lp232
I9999
aI9999
aI9999
aI9999
aI9999
aI9999
aI9999
aI9999
aaI-1
aa(lp233
(lp234
I9999
aI9999
aI9999
aI9999
aI9999
aI9999
aI9999
aI9999
aaI-1
aa(lp235
(lp236
I9999
aI9999
aI9999
aI9999
aI9999
aI9999
aI9999
aI9999
aaI-1
aa(lp237
(lp238
I9999
aI9999
aI9999
aI9999
aI9999
aI9999
aI9999
aI9999
aaI-1
aa(lp239
(lp240
I9999
aI9999
aI9999
aI9999
aI9999
aI9999
aI9999
aI9999
aaI-1
aa(lp241
(lp242
I9999
aI9999
aF0.30049455165863037
aI9999
aI9999
aF0.30049455165863037
aI9999
aI9999
aaI-1
aa(lp243
(lp244
I9999
aF0.2609018087387085
aF0.300494521856308
aI9999
aI9999
aF0.300494521856308
aI9999
aI9999
aaI-1
aa(lp245
(lp246
I9999
aI9999
aI9999
aF5.724371910095215
aF5.805056571960449
aI9999
aI9999
aI9999
aaI-1
aa(lp247
(lp248
I9999
aF0.2609018385410309
aI9999
aF5.411818981170654
aF5.449358940124512
aI9999
aI9999
aI9999
aaI-1
aa(lp249
(lp250
I9999
aI9999
aF5.611895561218262
aF4.535167694091797
aF4.5625410079956055
aF5.731119632720947
aI9999
aI9999
aaI-1
aa(lp251
(lp252
I9999
aI9999
aF5.74968147277832
aF4.645262241363525
aF4.672274589538574
aF5.8673319816589355
aI9999
aI9999
aaI-1
aa(lp253
(lp254
I9999
aI9999
aF5.778353691101074
aF4.655988693237305
aF4.672945499420166
aF5.852204322814941
aI9999
aI9999
aaI-1
aa(lp255
(lp256
I9999
aI9999
aF5.854757785797119
aF4.708230495452881
aF4.717839241027832
aF5.896603584289551
aI9999
aI9999
aaI-1
aa(lp257
(lp258
I9999
aI9999
aF0.30049455165863037
aF4.217072486877441
aF4.225417137145996
aF0.30049455165863037
aF0.2609018087387085
aI9999
aaI-1
aa(lp259
(lp260
I9999
aI9999
aF4.030402660369873
aF3.2263314723968506
aF3.221059560775757
aF4.007443904876709
aI9999
aI9999
aaI1
aa(lp261
(lp262
I9999
aI9999
aF4.115702152252197
aF3.291504383087158
aF3.2836496829986572
aF4.081494331359863
aI9999
aI9999
aaI1
aa(lp263
(lp264
I9999
aI9999
aF4.095544815063477
aF3.269423723220825
aF3.2568936347961426
aF0.300494521856308
aI9999
aI9999
aaI1
aa(lp265
(lp266
F0.23500008881092072
aF0.2609018385410309
aF4.136090278625488
aF3.296018123626709
aF3.278827667236328
aF4.061218738555908
aI9999
aI9999
aaI1
aa(lp267
(lp268
I9999
aI9999
aF4.1107306480407715
aF3.2729549407958984
aF3.2536375522613525
aF4.026593208312988
aI9999
aI9999
aaI1
aa(lp269
(lp270
I9999
aI9999
aF4.131917476654053
aF3.2844760417938232
aF3.260894775390625
aF0.300494521856308
aI9999
aI9999
aaI1
aa(lp271
(lp272
F0.2350001037120819
aF0.26090186834335327
aF4.14638090133667
aF3.2929084300994873
aF3.266869306564331
aF4.032958984375
aI9999
aI9999
aaI1
aa(lp273
(lp274
I9999
aI9999
aF4.137558937072754
aF3.2801313400268555
aF3.2496964931488037
aF4.004981517791748
aI9999
aI9999
aaI1
aa(lp275
(lp276
I9999
aI9999
aF0.300494521856308
aF3.2595176696777344
aF3.224210023880005
aF3.965977430343628
aI9999
aI9999
aaI1
aa(lp277
(lp278
I9999
aI9999
aF4.076426982879639
aF3.225217580795288
aF3.190291166305542
aF3.924269676208496
aI9999
aF0.23500007390975952
aaI1
aa(lp279
(lp280
I9999
aI9999
aF0.300494521856308
aF3.2143850326538086
aF3.1761114597320557
aF3.901655435562134
aI9999
aI9999
aaI1
aa(lp281
(lp282
I9999
aI9999
aF0.300494521856308
aF3.1675074100494385
aF3.1302387714385986
aF3.8459701538085938
aI9999
aI9999
aaI1
aa(lp283
(lp284
I9999
aI9999
aF3.984872579574585
aF3.149984836578369
aF3.1137115955352783
aF3.8268420696258545
aF0.26090186834335327
aF0.2350001037120819
aaI1
aa(lp285
(lp286
I9999
aI9999
aF4.0191497802734375
aF3.1791481971740723
aF3.1441383361816406
aF3.8666274547576904
aI9999
aI9999
aaI1
aa(lp287
(lp288
I9999
aI9999
aF4.012279987335205
aF3.1700689792633057
aF3.132344961166382
aF3.8479230403900146
aI9999
aI9999
aaI1
aa(lp289
(lp290
I9999
aI9999
aF3.996770143508911
aF3.1582608222961426
aF3.121021270751953
aF3.8345258235931396
aI9999
aI9999
aaI1
aa(lp291
(lp292
I9999
aI9999
aF3.9772684574127197
aF3.1443822383880615
aF3.108489513397217
aF3.820895195007324
aI9999
aI9999
aaI1
aa(lp293
(lp294
I9999
aI9999
aF3.9712255001068115
aF3.1418826580047607
aF3.1077804565429688
aF3.8226592540740967
aI9999
aI9999
aaI1
aa(lp295
(lp296
I9999
aI9999
aF3.984689712524414
aF3.1532704830169678
aF3.1196141242980957
aF3.8380677700042725
aI9999
aI9999
aaI1
aa(lp297
(lp298
I9999
aI9999
aF4.001531600952148
aF3.1625442504882812
aF3.1256563663482666
aF3.8408203125
aI9999
aI9999
aaI1
aa(lp299
(lp300
I9999
aI9999
aF4.010382175445557
aF3.169410228729248
aF3.13234281539917
aF3.8488881587982178
aI9999
aI9999
aaI1
aa(lp301
(lp302
I9999
aI9999
aF4.020458698272705
aF3.1757936477661133
aF3.137432813644409
aF3.8533260822296143
aI9999
aI9999
aaI1
aa(lp303
(lp304
I9999
aI9999
aF4.029049396514893
aF3.1825006008148193
aF3.1439976692199707
aF3.861297607421875
aI9999
aI9999
aaI1
aa(lp305
(lp306
I9999
aI9999
aF4.039615631103516
aF3.1913559436798096
aF3.1531386375427246
aF3.8731095790863037
aI9999
aI9999
aaI1
aa(lp307
(lp308
I9999
aI9999
aF4.0641889572143555
aF3.2106738090515137
aF3.172151565551758
aF3.8963541984558105
aI9999
aI9999
aaI1
aa(lp309
(lp310
I9999
aI9999
aF4.089642524719238
aF3.2302439212799072
aF3.1910722255706787
aF3.9189765453338623
aI9999
aI9999
aaI1
aa(lp311
(lp312
I9999
aI9999
aF4.102336883544922
aF3.239656925201416
aF3.1998980045318604
aF3.9291107654571533
aI9999
aI9999
aaI1
aa(lp313
(lp314
I9999
aI9999
aF4.093941688537598
aF3.2329869270324707
aF3.1932787895202637
aF3.9209370613098145
aI9999
aI9999
aaI1
aa(lp315
(lp316
I9999
aI9999
aF4.087130069732666
aF3.228586435317993
aF3.1896870136260986
aF3.9176506996154785
aI9999
aI9999
aaI1
aa(lp317
(lp318
I9999
aI9999
aF4.076455116271973
aF3.2228033542633057
aF3.1860196590423584
aF3.9162001609802246
aI9999
aI9999
aaI1
aa(lp319
(lp320
I9999
aI9999
aF4.072761535644531
aF3.218369483947754
aF3.1804676055908203
aF3.9076311588287354
aI9999
aI9999
aaI1
aa(lp321
(lp322
I9999
aI9999
aF4.055482864379883
aF3.2048914432525635
aF3.1672840118408203
aF3.8916361331939697
aI9999
aI9999
aaI1
aa(lp323
(lp324
I9999
aI9999
aF4.045232772827148
aF3.196216344833374
aF3.15826678276062
aF3.879894733428955
aI9999
aI9999
aaI1
aa(lp325
(lp326
I9999
aI9999
aF4.0482988357543945
aF3.1986114978790283
aF3.1606128215789795
aF3.8827455043792725
aI9999
aI9999
aaI1
aa(lp327
(lp328
I9999
aI9999
aF4.0573015213012695
aF3.203634738922119
aF3.163965940475464
aF3.8844656944274902
aI9999
aI9999
aaI1
aa(lp329
(lp330
I9999
aI9999
aF4.804439067840576
aF3.7853891849517822
aF3.732238292694092
aF4.572834014892578
aI9999
aI9999
aaI-1
aa(lp331
(lp332
I9999
aI9999
aF0.300494521856308
aF4.659356594085693
aF4.602838039398193
aF0.30049455165863037
aI9999
aI9999
aaI-1
aa(lp333
(lp334
I9999
aI9999
aF5.709487438201904
aF4.507307052612305
aF4.45081090927124
aF5.4633331298828125
aI9999
aI9999
aaI-1
aa(lp335
(lp336
I9999
aI9999
aF5.8062286376953125
aF4.583495140075684
aF4.52590274810791
aF0.300494521856308
aI9999
aI9999
aaI-1
aa(lp337
(lp338
I9999
aI9999
aF5.7584099769592285
aF4.555876731872559
aF4.506459712982178
aF0.300494521856308
aI9999
aI9999
aaI-1
aa(lp339
(lp340
I9999
aF0.26090186834335327
aF5.655372619628906
aF4.474828243255615
aF4.426655292510986
aF5.445507049560547
aI9999
aI9999
aaI-1
aa(lp341
(lp342
I9999
aI9999
aF5.70604944229126
aF4.50591516494751
aF4.450454235076904
aF5.464410305023193
aI9999
aI9999
aaI-1
aa(lp343
(lp344
I9999
aI9999
aF5.756136894226074
aF4.539566993713379
aF4.479156970977783
aF0.300494521856308
aI9999
aI9999
aaI-1
aa(lp345
(lp346
F0.23500008881092072
aF0.26090186834335327
aF5.812367916107178
aF4.587429046630859
aF4.529085159301758
aF5.558159828186035
aI9999
aI9999
aaI-1
aa(lp347
(lp348
I9999
aI9999
aF5.82521390914917
aF4.5970563888549805
aF4.538196563720703
aF5.568756103515625
aI9999
aI9999
aaI-1
aa(lp349
(lp350
I9999
aI9999
aF5.8552422523498535
aF4.61956262588501
aF4.5594987869262695
aF5.593535900115967
aI9999
aI9999
aaI-1
aa(lp351
(lp352
I9999
aI9999
aF5.874561786651611
aF4.634423732757568
aF4.573873519897461
aF5.6107354164123535
aI9999
aI9999
aaI-1
aa(lp353
(lp354
I9999
aI9999
aF5.926755428314209
aF4.671743869781494
aF4.607748031616211
aF5.647902011871338
aI9999
aI9999
aaI-1
aa(lp355
(lp356
I9999
aI9999
aF5.973012924194336
aF4.705023288726807
aF4.638134479522705
aF5.681539535522461
aI9999
aI9999
aaI-1
aa(lp357
(lp358
I9999
aI9999
aF5.997714042663574
aF4.725459098815918
aF4.659028053283691
aF5.708241939544678
aI9999
aI9999
aaI-1
aa(lp359
(lp360
I9999
aI9999
aI9999
aF4.729531764984131
aF4.6631364822387695
aI9999
aI9999
aI9999
aaI-1
aa(lp361
(lp362
I9999
aI9999
aF5.987833499908447
aF4.721003532409668
aF4.657188892364502
aI9999
aI9999
aI9999
aaI-1
aa(lp363
(lp364
I9999
aI9999
aF5.978823184967041
aF4.712950706481934
aF4.648516654968262
aI9999
aI9999
aI9999
aaI-1
aa(lp365
(lp366
I9999
aI9999
aF5.961053371429443
aF4.699974060058594
aF4.636507987976074
aI9999
aI9999
aI9999
aaI-1
aa(lp367
(lp368
I9999
aI9999
aF5.976362705230713
aF4.711367607116699
aF4.647228240966797
aF0.300494521856308
aI9999
aI9999
aaI-1
aa(lp369
(lp370
F0.23500008881092072
aF0.2609018385410309
aI9999
aF4.736281871795654
aF4.670848369598389
aI9999
aI9999
aI9999
aaI-1
aa(lp371
(lp372
I9999
aI9999
aF5.982497215270996
aF4.717471599578857
aF4.6542229652404785
aI9999
aI9999
aI9999
aaI-1
aa(lp373
(lp374
I9999
aI9999
aF0.300494521856308
aF4.662739276885986
aF4.59683084487915
aI9999
aI9999
aI9999
aaI-1
aa(lp375
(lp376
I9999
aI9999
aF0.300494521856308
aF4.566547870635986
aF4.503763198852539
aF5.520102500915527
aI9999
aI9999
aaI-1
aa(lp377
(lp378
I9999
aI9999
aF0.300494521856308
aF4.444839000701904
aF4.384642601013184
aF5.375457286834717
aI9999
aI9999
aaI-1
aa(lp379
(lp380
I9999
aI9999
aF5.549725532531738
aF4.379507541656494
aF4.323322772979736
aF5.304924011230469
aI9999
aF0.23500007390975952
aaI-1
aa(lp381
(lp382
I9999
aI9999
aF5.565494537353516
aF4.3937764167785645
aF4.338813304901123
aF5.32602071762085
aI9999
aI9999
aaI-1
aa(lp383
(lp384
I9999
aI9999
aF0.3004944920539856
aF4.380587577819824
aF4.3234686851501465
aF5.303736209869385
aI9999
aI9999
aaI-1
aa(lp385
(lp386
I9999
aF4.638236045837402
aF4.202628135681152
aF4.690161228179932
aI9999
aI9999
aI9999
aI9999
aaI-1
aa(lp387
(lp388
F5.575085639953613
aF4.415945053100586
aF4.372008323669434
aF0.24103718996047974
aF0.24103718996047974
aF0.3004944920539856
aF0.26090192794799805
aI9999
aaI-1
aa(lp389
(lp390
F5.7108612060546875
aF4.530205726623535
aF4.490358829498291
aF5.537289619445801
aI9999
aI9999
aI9999
aI9999
aaI-1
aa(lp391
(lp392
F5.786088943481445
aF4.599063396453857
aF4.565793514251709
aF5.641175270080566
aI9999
aI9999
aI9999
aI9999
aaI-1
aa(lp393
(lp394
F5.8036088943481445
aF4.62168025970459
aF4.595078945159912
aF5.687746047973633
aI9999
aI9999
aI9999
aI9999
aaI-1
aa(lp395
(lp396
F5.779577255249023
aF4.610170841217041
aF4.589657783508301
aF5.690237045288086
aI9999
aI9999
aI9999
aI9999
aaI-1
aa(lp397
(lp398
F5.749104022979736
aF4.590816974639893
aF4.574314594268799
aF5.6772308349609375
aI9999
aI9999
aI9999
aI9999
aaI-1
aa(lp399
(lp400
F5.68752384185791
aF4.547855377197266
aF4.536443710327148
aF5.637824535369873
aI9999
aI9999
aI9999
aI9999
aaI-1
aa(lp401
(lp402
F5.626530647277832
aF4.503270149230957
aF4.495306491851807
aF5.591847896575928
aI9999
aI9999
aI9999
aI9999
aaI-1
aa(lp403
(lp404
F5.56919527053833
aF4.4619832038879395
aF4.457770347595215
aF5.550846099853516
aI9999
aI9999
aI9999
aI9999
aaI-1
aa(lp405
(lp406
F5.520631313323975
aF4.42700719833374
aF4.425976753234863
aF5.516144752502441
aI9999
aI9999
aI9999
aI9999
aaI-1
aa(lp407
(lp408
F5.457292079925537
aF4.3804545402526855
aF4.382838249206543
aF5.46767520904541
aI9999
aI9999
aI9999
aI9999
aaI-1
aa(lp409
(lp410
F5.403526306152344
aF4.341165065765381
aF4.346640586853027
aF5.427371978759766
aI9999
aI9999
aI9999
aI9999
aaI-1
aa(lp411
(lp412
F5.365795135498047
aF4.311896800994873
aF4.318177223205566
aF5.393146514892578
aI9999
aI9999
aI9999
aI9999
aaI-1
aa(lp413
(lp414
F5.325230121612549
aF4.2838616371154785
aF4.293785095214844
aF5.368448734283447
aI9999
aI9999
aI9999
aI9999
aaI-1
aa(lp415
(lp416
F5.281663417816162
aF4.251867294311523
aF4.264187335968018
aF5.335318565368652
aI9999
aI9999
aI9999
aI9999
aaI-1
aa(lp417
(lp418
F5.231860160827637
aF4.236178398132324
aF4.268420696258545
aF0.24103718996047974
aF0.24103720486164093
aF0.300494521856308
aI9999
aI9999
aaI-1
aa(lp419
(lp420
F5.196287631988525
aF4.196045398712158
aF4.218713760375977
aF5.295016288757324
aI9999
aI9999
aI9999
aI9999
aaI-1
aa(lp421
(lp422
F5.1529717445373535
aF4.162662029266357
aF4.1864519119262695
aF5.256587982177734
aI9999
aI9999
aI9999
aI9999
aaI-1
aa(lp423
(lp424
I9999
aF5.8038249015808105
aF4.316778659820557
aF4.078768730163574
aF4.757851600646973
aI9999
aI9999
aI9999
aaI-1
aa(lp425
(lp426
I9999
aI9999
aF4.539482116699219
aF3.998976230621338
aF4.341037750244141
aI9999
aI9999
aI9999
aaI-1
aa(lp427
(lp428
I9999
aI9999
aF4.452028274536133
aF3.909214496612549
aF4.230475902557373
aF5.876031875610352
aI9999
aI9999
aaI-1
aa(lp429
(lp430
I9999
aI9999
aF4.396503925323486
aF3.850432872772217
aF4.156604766845703
aF5.752139568328857
aI9999
aI9999
aaI-1
aa(lp431
(lp432
I9999
aI9999
aF4.373800754547119
aF3.8242597579956055
aF4.121951580047607
aF5.691006660461426
aI9999
aI9999
aaI-1
aa(lp433
(lp434
I9999
aI9999
aI9999
aF4.8608479499816895
aF3.8980424404144287
aF3.8972291946411133
aF4.857306003570557
aI9999
aaI-1
aa(lp435
(lp436
I9999
aI9999
aI9999
aF5.893250942230225
aF4.147110939025879
aF3.775489568710327
aF4.233822822570801
aI9999
aaI-1
aa(lp437
(lp438
I9999
aI9999
aF4.880200386047363
aF3.8776752948760986
aF3.848571538925171
aF4.753432273864746
aI9999
aI9999
aaI-1
aa(lp439
(lp440
I9999
aI9999
aF4.417646408081055
aF3.823323965072632
aF4.081830978393555
aF5.557125568389893
aI9999
aI9999
aaI-1
aa(lp441
(lp442
I9999
aI9999
aF4.529378414154053
aF3.9129371643066406
aF4.170536518096924
aF5.664163112640381
aI9999
aI9999
aaI-1
aa(lp443
(lp444
I9999
aF0.2609018385410309
aF4.594890117645264
aF3.9582624435424805
aF4.207845211029053
aF5.6933441162109375
aI9999
aI9999
aaI-1
aa(lp445
(lp446
I9999
aF0.2609018385410309
aF4.630673885345459
aF3.977447032928467
aF4.2169694900512695
aF5.68389892578125
aI9999
aI9999
aaI-1
aa(lp447
(lp448
I9999
aI9999
aF4.700020790100098
aF4.026609897613525
aF4.259099960327148
aF5.721545696258545
aF0.2609018385410309
aF0.23500007390975952
aaI-1
aa(lp449
(lp450
I9999
aI9999
aF4.773481845855713
aF4.082664489746094
aF4.311816215515137
aF5.77985954284668
aI9999
aI9999
aaI-1
aa(lp451
(lp452
I9999
aI9999
aF4.831066131591797
aF4.126415729522705
aF4.352789878845215
aF5.824880123138428
aI9999
aI9999
aaI-1
aa(lp453
(lp454
I9999
aI9999
aI9999
aF4.920590877532959
aF4.196214199066162
aF4.420099258422852
aF5.903059005737305
aI9999
aaI-1
aa(lp455
(lp456
I9999
aI9999
aI9999
aF5.456920146942139
aF4.3149189949035645
aF4.266237735748291
aF5.244832992553711
aI9999
aaI-1
aa(lp457
(lp458
I9999
aI9999
aI9999
aF5.404061794281006
aF4.285645008087158
aF4.247024059295654
aF5.23582649230957
aI9999
aaI-1
aa(lp459
(lp460
I9999
aI9999
aI9999
aF5.402350902557373
aF4.281894683837891
aF4.241445064544678
aF5.2261457443237305
aI9999
aaI-1
aa(lp461
(lp462
I9999
aI9999
aI9999
aF5.434817314147949
aF4.302839756011963
aF4.258476257324219
aF5.24155330657959
aI9999
aaI-1
aa(lp463
(lp464
I9999
aI9999
aI9999
aF5.831607341766357
aF4.425589561462402
aF4.242166519165039
aF5.028759002685547
aI9999
aaI-1
aa(lp465
(lp466
I9999
aI9999
aI9999
aI9999
aI9999
aF4.785804748535156
aF4.235761642456055
aF4.61881160736084
aaI-1
aa(lp467
(lp468
I9999
aI9999
aI9999
aI9999
aI9999
aF5.655882835388184
aF4.4454026222229
aF4.374721527099609
aaI-1
aa(lp469
(lp470
I9999
aI9999
aI9999
aI9999
aF5.209572792053223
aF4.413948059082031
aF4.622619152069092
aI9999
aaI-1
aa(lp471
(lp472
I9999
aI9999
aI9999
aI9999
aF4.909482955932617
aF4.417795181274414
aF4.896225452423096
aI9999
aaI-1
aa(lp473
(lp474
I9999
aI9999
aF5.939566135406494
aF4.606112957000732
aF4.48659610748291
aF5.418054103851318
aI9999
aI9999
aaI-1
aa(lp475
(lp476
I9999
aI9999
aF5.358834266662598
aF4.5067901611328125
aF4.689038276672363
aI9999
aI9999
aI9999
aaI-1
aa(lp477
(lp478
I9999
aI9999
aF5.452119827270508
aF4.58104944229126
aF4.762489318847656
aI9999
aI9999
aI9999
aaI-1
aa(lp479
(lp480
I9999
aI9999
aI9999
aI9999
aF4.7782135009765625
aF4.742312431335449
aF5.857247829437256
aI9999
aaI-1
aa(lp481
(lp482
I9999
aI9999
aI9999
aI9999
aF5.110339164733887
aF4.687410354614258
aF5.297139644622803
aI9999
aaI-1
aa(lp483
(lp484
I9999
aI9999
aI9999
aI9999
aF5.102207183837891
aF4.702244281768799
aF5.34027099609375
aI9999
aaI-1
aa(lp485
(lp486
I9999
aI9999
aI9999
aI9999
aF5.142784118652344
aF4.735372066497803
aF5.372829437255859
aI9999
aaI-1
aa(lp487
(lp488
I9999
aI9999
aI9999
aF4.9124226570129395
aF4.887060165405273
aI9999
aI9999
aI9999
aaI-1
aa(lp489
(lp490
I9999
aI9999
aF5.572332859039307
aF4.8692121505737305
aF5.245210647583008
aI9999
aI9999
aI9999
aaI-1
aa(lp491
(lp492
I9999
aI9999
aF5.694703578948975
aF4.974562168121338
aF5.357095241546631
aI9999
aI9999
aI9999
aaI-1
aa(lp493
(lp494
I9999
aI9999
aF5.818806171417236
aF5.079943656921387
aF5.467517375946045
aF0.300494521856308
aI9999
aI9999
aaI-1
aa(lp495
(lp496
F0.23500008881092072
aF0.2609018385410309
aF5.941435813903809
aF5.201545715332031
aF5.613184928894043
aI9999
aI9999
aI9999
aaI-1
aa(lp497
(lp498
I9999
aI9999
aI9999
aF5.288087844848633
aF5.701369762420654
aI9999
aI9999
aI9999
aaI-1
aa(lp499
(lp500
I9999
aI9999
aI9999
aI9999
aI9999
aI9999
aI9999
aI9999
aaI-1
aa(lp501
(lp502
I9999
aF0.26090186834335327
aF0.300494521856308
aF0.24103721976280212
aF0.24103721976280212
aF0.30049455165863037
aI9999
aI9999
aaI-1
aa(lp503
(lp504
I9999
aI9999
aI9999
aI9999
aI9999
aI9999
aI9999
aI9999
aaI-1
aa(lp505
(lp506
I9999
aF0.2609018087387085
aF0.30049455165863037
aI9999
aF0.24103721976280212
aI9999
aI9999
aI9999
aaI-1
aa(lp507
(lp508
I9999
aI9999
aI9999
aF5.792603969573975
aI9999
aI9999
aI9999
aI9999
aaI-1
aa(lp509
(lp510
I9999
aI9999
aI9999
aF5.846042633056641
aI9999
aI9999
aI9999
aI9999
aaI-1
aa(lp511
(lp512
I9999
aF0.2609018385410309
aF0.30049455165863037
aF5.248997688293457
aF0.24103721976280212
aF0.300494521856308
aI9999
aI9999
aaI-1
aa(lp513
(lp514
I9999
aI9999
aF5.026602268218994
aF4.399281024932861
aF4.746049404144287
aI9999
aI9999
aI9999
aaI-1
aa(lp515
(lp516
I9999
aI9999
aF5.143538951873779
aF4.508357524871826
aF4.870602607727051
aI9999
aI9999
aI9999
aaI-1
aa(lp517
(lp518
I9999
aF0.2609018385410309
aF0.30049455165863037
aF3.8258216381073
aF0.24103721976280212
aF0.30049455165863037
aI9999
aI9999
aaI-1
aa(lp519
(lp520
I9999
aF4.919543266296387
aF3.2461483478546143
aF2.8417956829071045
aF3.0665793418884277
aF4.2412543296813965
aI9999
aI9999
aaI1
aa(lp521
(lp522
I9999
aF4.968789100646973
aF3.2897748947143555
aF2.885647773742676
aF3.1196913719177246
aF4.32672119140625
aI9999
aI9999
aaI1
aa(lp523
(lp524
I9999
aF4.721496105194092
aF3.1282174587249756
aF2.745044469833374
aF2.9688210487365723
aF4.119844436645508
aI9999
aI9999
aaI1
aa(lp525
(lp526
I9999
aF4.529705047607422
aF3.0047056674957275
aF2.6384806632995605
aF2.8554399013519287
aF3.966405153274536
aI9999
aI9999
aaI1
aa(lp527
(lp528
I9999
aF4.154489994049072
aF2.7841129302978516
aF2.459486484527588
aF0.24103720486164093
aF0.300494521856308
aI9999
aI9999
aaI1
aa(lp529
(lp530
F0.23500008881092072
aF3.8234453201293945
aF2.550363063812256
aF2.2468130588531494
aF2.439119577407837
aF3.404003858566284
aI9999
aI9999
aaI-1
aa(lp531
(lp532
I9999
aF4.851364612579346
aF3.2181456089019775
aF2.8259427547454834
aF3.0583548545837402
aF4.248347759246826
aI9999
aI9999
aaI1
aa(lp533
(lp534
I9999
aI9999
aF0.300494521856308
aF0.24103720486164093
aF0.24103718996047974
aF0.3004944920539856
aI9999
aI9999
aaI-1
aa(lp535
(lp536
I9999
aI9999
aF4.049073696136475
aF3.5706400871276855
aF3.8798909187316895
aF5.422433853149414
aI9999
aI9999
aaI-1
aa(lp537
(lp538
I9999
aI9999
aF4.1113715171813965
aF3.6285035610198975
aF3.945817708969116
aF5.521060943603516
aI9999
aI9999
aaI-1
aa(lp539
(lp540
I9999
aI9999
aF4.152280807495117
aF3.669560432434082
aF3.995647430419922
aF0.3004944920539856
aI9999
aI9999
aaI-1
aa(lp541
(lp542
I9999
aI9999
aF4.2349748611450195
aF3.7453322410583496
aF0.24103720486164093
aF0.300494521856308
aI9999
aI9999
aaI-1
aa(lp543
(lp544
F0.23500008881092072
aF0.26090186834335327
aF4.272693634033203
aF3.7761964797973633
aF4.111992359161377
aF5.765464782714844
aI9999
aI9999
aaI-1
aa(lp545
(lp546
I9999
aI9999
aF4.242919921875
aF3.747553586959839
aF4.078364372253418
aF5.713104248046875
aI9999
aI9999
aaI-1
aa(lp547
(lp548
I9999
aI9999
aF4.267457008361816
aF3.776029109954834
aF0.24103720486164093
aF0.300494521856308
aI9999
aI9999
aaI-1
aa(lp549
(lp550
I9999
aI9999
aF4.325606346130371
aF3.830603837966919
aF0.24103720486164093
aF0.3004944920539856
aI9999
aI9999
aaI-1
aa(lp551
(lp552
I9999
aI9999
aF4.369528293609619
aF3.8737690448760986
aF0.24103720486164093
aF0.300494521856308
aI9999
aI9999
aaI-1
aa(lp553
(lp554
F0.23500008881092072
aI9999
aF4.383492469787598
aF3.8771755695343018
aF4.225157260894775
aI9999
aI9999
aI9999
aaI-1
aa(lp555
(lp556
I9999
aI9999
aF4.3378801345825195
aF3.8395330905914307
aF4.186977863311768
aI9999
aI9999
aI9999
aaI-1
aa(lp557
(lp558
I9999
aI9999
aF4.318627834320068
aF3.8216207027435303
aF4.166527271270752
aI9999
aI9999
aI9999
aaI-1
aa(lp559
(lp560
I9999
aI9999
aF4.307298183441162
aF3.8100368976593018
aF4.1522603034973145
aI9999
aI9999
aI9999
aaI-1
aa(lp561
(lp562
I9999
aI9999
aF4.976833343505859
aF4.38482666015625
aF4.760488033294678
aI9999
aI9999
aI9999
aaI-1
aa(lp563
(lp564
I9999
aI9999
aI9999
aF5.879732608795166
aI9999
aI9999
aI9999
aI9999
aaI-1
aa(lp565
(lp566
I9999
aI9999
aI9999
aI9999
aI9999
aI9999
aI9999
aI9999
aaI-1
aa(lp567
(lp568
I9999
aI9999
aI9999
aI9999
aI9999
aI9999
aI9999
aI9999
aaI-1
aa(lp569
(lp570
I9999
aI9999
aI9999
aI9999
aI9999
aI9999
aI9999
aI9999
aaI-1
aa(lp571
(lp572
I9999
aI9999
aI9999
aI9999
aI9999
aI9999
aI9999
aI9999
aaI-1
aa(lp573
(lp574
I9999
aI9999
aI9999
aI9999
aI9999
aI9999
aI9999
aI9999
aaI-1
aa(lp575
(lp576
I9999
aI9999
aI9999
aI9999
aI9999
aI9999
aI9999
aI9999
aaI-1
aa(lp577
(lp578
I9999
aI9999
aI9999
aI9999
aI9999
aI9999
aI9999
aI9999
aaI-1
aa(lp579
(lp580
I9999
aI9999
aI9999
aI9999
aI9999
aI9999
aI9999
aI9999
aaI-1
aa(lp581
(lp582
I9999
aI9999
aI9999
aI9999
aI9999
aI9999
aI9999
aI9999
aaI-1
aa(lp583
(lp584
I9999
aI9999
aI9999
aI9999
aI9999
aI9999
aI9999
aI9999
aaI-1
aa(lp585
(lp586
I9999
aI9999
aI9999
aI9999
aI9999
aI9999
aI9999
aI9999
aaI-1
aa(lp587
(lp588
I9999
aI9999
aI9999
aI9999
aI9999
aI9999
aI9999
aI9999
aaI-1
aa(lp589
(lp590
I9999
aI9999
aI9999
aI9999
aI9999
aI9999
aI9999
aI9999
aaI-1
aa(lp591
(lp592
I9999
aI9999
aI9999
aI9999
aI9999
aI9999
aI9999
aI9999
aaI-1
aa(lp593
(lp594
I9999
aI9999
aI9999
aI9999
aI9999
aI9999
aI9999
aI9999
aaI-1
aa(lp595
(lp596
I9999
aI9999
aF0.300494521856308
aI9999
aI9999
aI9999
aI9999
aI9999
aaI-1
aa(lp597
(lp598
I9999
aI9999
aF0.300494521856308
aI9999
aI9999
aI9999
aI9999
aI9999
aaI-1
aa(lp599
(lp600
I9999
aI9999
aI9999
aI9999
aI9999
aI9999
aF0.2609018385410309
aI9999
aaI-1
aa(lp601
(lp602
I9999
aI9999
aI9999
aI9999
aI9999
aI9999
aI9999
aI9999
aaI-1
aa(lp603
(lp604
I9999
aI9999
aF0.300494521856308
aI9999
aI9999
aI9999
aI9999
aI9999
aaI-1
aa(lp605
(lp606
F4.74116325378418
aI9999
aF0.300494521856308
aI9999
aI9999
aI9999
aI9999
aI9999
aaI-1
aa(lp607
(lp608
F2.7933731079101562
aF3.146423578262329
aF0.300494521856308
aI9999
aI9999
aI9999
aI9999
aI9999
aaI1
aa(lp609
(lp610
F1.5006709098815918
aF1.6920078992843628
aI9999
aI9999
aI9999
aI9999
aI9999
aI9999
aaI-1
aa(lp611
(lp612
F1.2465652227401733
aF1.4082419872283936
aF2.094235420227051
aI9999
aI9999
aI9999
aI9999
aI9999
aaI-1
aa(lp613
(lp614
F0.9070615768432617
aF1.02549409866333
aF1.5270146131515503
aI9999
aI9999
aI9999
aI9999
aI9999
aaI-1
aa(lp615
(lp616
F0.6431848406791687
aF0.7281079292297363
aF1.0865662097930908
aI9999
aI9999
aI9999
aI9999
aI9999
aaI-1
aa(lp617
(lp618
F0.42329883575439453
aF0.47949326038360596
aF0.7163227200508118
aI9999
aI9999
aI9999
aI9999
aI9999
aaI-1
aa(lp619
(lp620
F0.7558251023292542
aF0.8574481010437012
aF1.2842161655426025
aI9999
aI9999
aF0.30049455165863037
aI9999
aI9999
aaI-1
aa(lp621
(lp622
F1.410990595817566
aF0.2609018087387085
aF0.300494521856308
aI9999
aI9999
aI9999
aI9999
aI9999
aaI-1
aa(lp623
(lp624
F1.1659287214279175
aF1.330248475074768
aF2.011868715286255
aI9999
aI9999
aI9999
aI9999
aI9999
aaI-1
aa(lp625
(lp626
F1.0429253578186035
aF1.1916671991348267
aF1.806883692741394
aI9999
aI9999
aI9999
aI9999
aI9999
aaI-1
aa(lp627
(lp628
F0.9379935264587402
aF1.0726714134216309
aF1.6288278102874756
aI9999
aI9999
aI9999
aI9999
aI9999
aaI-1
aa(lp629
(lp630
F1.5188438892364502
aF1.7375595569610596
aI9999
aI9999
aI9999
aF0.300494521856308
aI9999
aI9999
aaI-1
aa(lp631
(lp632
F0.23500008881092072
aF0.2609018385410309
aF0.300494521856308
aI9999
aI9999
aI9999
aI9999
aI9999
aaI-1
aa(lp633
(lp634
F2.3050060272216797
aF2.632099151611328
aI9999
aI9999
aI9999
aI9999
aI9999
aI9999
aaI-1
aa(lp635
(lp636
F2.3936026096343994
aF2.732349395751953
aI9999
aI9999
aI9999
aI9999
aI9999
aI9999
aaI-1
aa(lp637
(lp638
F3.0265653133392334
aI9999
aI9999
aI9999
aI9999
aI9999
aI9999
aI9999
aaI-1
aa(lp639
(lp640
I9999
aI9999
aI9999
aI9999
aI9999
aI9999
aI9999
aI9999
aaI-1
aa(lp641
(lp642
F2.644195795059204
aI9999
aI9999
aI9999
aI9999
aI9999
aI9999
aI9999
aaI-1
aa(lp643
(lp644
F3.449544668197632
aF2.7313647270202637
aF2.7034363746643066
aF3.327878952026367
aI9999
aI9999
aI9999
aI9999
aaI-1
aa(lp645
(lp646
F3.287127733230591
aF2.6594791412353516
aF2.678020715713501
aI9999
aI9999
aI9999
aI9999
aI9999
aaI1
aa(lp647
(lp648
I9999
aF3.700226306915283
aF2.6963083744049072
aF2.5118210315704346
aF2.8853023052215576
aI9999
aI9999
aI9999
aaI-1
aa(lp649
(lp650
I9999
aF4.199263572692871
aF2.7207858562469482
aF2.357260227203369
aF2.519124984741211
aI9999
aI9999
aI9999
aaI-1
aa(lp651
(lp652
I9999
aF3.93027663230896
aF2.531184196472168
aF2.185610294342041
aF2.328432559967041
aI9999
aI9999
aI9999
aaI-1
aa(lp653
(lp654
I9999
aF4.775371551513672
aF3.0597848892211914
aF2.6345832347869873
aF2.799473285675049
aI9999
aI9999
aI9999
aaI1
aa(lp655
(lp656
I9999
aI9999
aF0.300494521856308
aF0.24103720486164093
aF0.24103721976280212
aF0.300494521856308
aI9999
aI9999
aaI1
aa(lp657
(lp658
I9999
aI9999
aF3.867176055908203
aF3.3128440380096436
aF3.503882884979248
aI9999
aI9999
aI9999
aaI1
aa(lp659
(lp660
I9999
aI9999
aF4.122254848480225
aF3.511180877685547
aI9999
aF0.300494521856308
aI9999
aI9999
aaI1
aa(lp661
(lp662
I9999
aI9999
aF4.333357810974121
aF3.7118239402770996
aI9999
aI9999
aI9999
aI9999
aaI1
aa(lp663
(lp664
I9999
aF0.2609018385410309
aF4.4153618812561035
aF3.750586986541748
aI9999
aI9999
aI9999
aI9999
aaI-1
aa(lp665
(lp666
I9999
aI9999
aF0.300494521856308
aF3.7846546173095703
aF3.958538770675659
aI9999
aI9999
aI9999
aaI-1
aa(lp667
(lp668
I9999
aI9999
aF0.300494521856308
aF3.838092803955078
aF3.9989590644836426
aF5.260251045227051
aI9999
aI9999
aaI-1
aa(lp669
(lp670
I9999
aI9999
aF4.693362712860107
aF3.9360125064849854
aF4.085114002227783
aF5.345232009887695
aF0.26090186834335327
aF0.23500008881092072
aaI-1
aa(lp671
(lp672
I9999
aI9999
aF4.893911838531494
aF4.0954694747924805
aF4.24275541305542
aF5.537602424621582
aI9999
aI9999
aaI-1
aa(lp673
(lp674
I9999
aI9999
aF5.071431636810303
aF4.232626438140869
aF4.37465763092041
aF5.691878795623779
aI9999
aI9999
aaI-1
aa(lp675
(lp676
I9999
aI9999
aI9999
aF5.442039489746094
aF4.4093828201293945
aF4.445433139801025
aF5.599069118499756
aI9999
aaI-1
aa(lp677
(lp678
I9999
aI9999
aI9999
aI9999
aF4.632741928100586
aF4.383837699890137
aF5.122129440307617
aI9999
aaI-1
aa(lp679
(lp680
I9999
aI9999
aI9999
aI9999
aF4.590929985046387
aF4.357780933380127
aF5.109250545501709
aI9999
aaI-1
aa(lp681
(lp682
I9999
aI9999
aI9999
aI9999
aF4.638960361480713
aF4.389679908752441
aF5.12890100479126
aI9999
aaI-1
aa(lp683
(lp684
I9999
aI9999
aI9999
aI9999
aF4.664668083190918
aF4.408238410949707
aF5.143154144287109
aI9999
aaI-1
aa(lp685
(lp686
I9999
aI9999
aI9999
aI9999
aF4.704934597015381
aF4.439383029937744
aF5.170632839202881
aI9999
aaI-1
aa(lp687
(lp688
I9999
aI9999
aI9999
aI9999
aF4.824692249298096
aF4.5181803703308105
aF5.21931791305542
aI9999
aaI-1
aa(lp689
(lp690
I9999
aI9999
aI9999
aI9999
aF4.961647033691406
aF4.659782886505127
aF5.399675369262695
aI9999
aaI-1
aa(lp691
(lp692
I9999
aF0.2609018385410309
aF0.300494521856308
aI9999
aF5.307272434234619
aF4.981684684753418
aF5.769293308258057
aI9999
aaI-1
aa(lp693
(lp694
I9999
aI9999
aF0.3004944920539856
aF0.24103720486164093
aF5.903322696685791
aF5.53240966796875
aI9999
aI9999
aaI-1
aa(lp695
(lp696
I9999
aF0.26090195775032043
aI9999
aI9999
aI9999
aI9999
aI9999
aI9999
aaI-1
aa(lp697
(lp698
I9999
aI9999
aI9999
aI9999
aF0.24103718996047974
aF0.3004944920539856
aF0.26090189814567566
aF0.2350001335144043
aaI-1
aa(lp699
(lp700
I9999
aI9999
aI9999
aI9999
aI9999
aI9999
aI9999
aI9999
aaI-1
aa(lp701
(lp702
I9999
aI9999
aI9999
aI9999
aI9999
aI9999
aI9999
aI9999
aaI-1
aa(lp703
(lp704
I9999
aI9999
aI9999
aI9999
aI9999
aI9999
aI9999
aI9999
aaI-1
aa(lp705
(lp706
I9999
aI9999
aI9999
aI9999
aI9999
aI9999
aI9999
aI9999
aaI-1
aa(lp707
(lp708
I9999
aI9999
aI9999
aI9999
aI9999
aI9999
aI9999
aI9999
aaI-1
aa(lp709
(lp710
I9999
aI9999
aI9999
aI9999
aI9999
aI9999
aI9999
aI9999
aaI-1
aa(lp711
(lp712
I9999
aI9999
aI9999
aI9999
aI9999
aI9999
aI9999
aI9999
aaI-1
aa(lp713
(lp714
I9999
aI9999
aI9999
aI9999
aI9999
aI9999
aI9999
aI9999
aaI-1
aa(lp715
(lp716
I9999
aI9999
aI9999
aI9999
aI9999
aI9999
aI9999
aI9999
aaI-1
aa(lp717
(lp718
I9999
aI9999
aI9999
aI9999
aI9999
aI9999
aI9999
aI9999
aaI-1
aa(lp719
(lp720
I9999
aI9999
aI9999
aI9999
aI9999
aI9999
aI9999
aI9999
aaI-1
aa(lp721
(lp722
I9999
aI9999
aI9999
aI9999
aI9999
aI9999
aI9999
aI9999
aaI-1
aa(lp723
(lp724
I9999
aI9999
aI9999
aI9999
aI9999
aI9999
aI9999
aI9999
aaI-1
aa(lp725
(lp726
I9999
aI9999
aI9999
aI9999
aI9999
aI9999
aI9999
aI9999
aaI-1
aa(lp727
(lp728
I9999
aI9999
aI9999
aI9999
aI9999
aI9999
aI9999
aI9999
aaI-1
aa(lp729
(lp730
I9999
aI9999
aI9999
aI9999
aI9999
aI9999
aI9999
aF0.23500008881092072
aaI-1
aa(lp731
(lp732
I9999
aF0.2609018385410309
aF0.30049455165863037
aI9999
aI9999
aI9999
aI9999
aI9999
aaI-1
aa(lp733
(lp734
F0.23500007390975952
aF0.2609018385410309
aI9999
aI9999
aI9999
aI9999
aI9999
aI9999
aaI-1
aa(lp735
(lp736
I9999
aI9999
aF0.3004942238330841
aI9999
aI9999
aI9999
aI9999
aI9999
aaI-1
aa(lp737
(lp738
I9999
aI9999
aI9999
aI9999
aI9999
aI9999
aF0.2609018385410309
aF0.23500007390975952
aaI-1
aa(lp739
(lp740
I9999
aI9999
aF0.300494521856308
aI9999
aI9999
aI9999
aI9999
aI9999
aaI-1
aa(lp741
(lp742
F5.5468668937683105
aI9999
aF0.300494521856308
aI9999
aI9999
aI9999
aI9999
aI9999
aaI-1
aa(lp743
(lp744
F4.502016544342041
aF5.069985866546631
aI9999
aI9999
aI9999
aI9999
aF0.2609018385410309
aI9999
aaI-1
aa(lp745
(lp746
F4.442830562591553
aF5.026519298553467
aI9999
aI9999
aI9999
aI9999
aI9999
aI9999
aaI-1
aa(lp747
(lp748
F4.144882678985596
aF4.709181308746338
aI9999
aI9999
aI9999
aI9999
aI9999
aI9999
aaI-1
aa(lp749
(lp750
F3.8849849700927734
aF4.433810710906982
aI9999
aI9999
aI9999
aI9999
aI9999
aI9999
aaI-1
aa(lp751
(lp752
F3.6273441314697266
aF4.157727241516113
aI9999
aI9999
aI9999
aI9999
aI9999
aI9999
aaI-1
aa(lp753
(lp754
F3.7862374782562256
aF3.331545352935791
aF3.6125049591064453
aF5.032731056213379
aI9999
aI9999
aI9999
aI9999
aaI-1
aa(lp755
(lp756
F3.667325496673584
aF3.028404951095581
aF3.101745843887329
aF3.9872429370880127
aI9999
aI9999
aI9999
aI9999
aaI1
aa(lp757
(lp758
I9999
aF3.694612503051758
aF2.778388261795044
aF2.64577054977417
aF3.1131584644317627
aF4.977227687835693
aI9999
aI9999
aaI1
aa(lp759
(lp760
I9999
aF3.650068998336792
aF2.4636964797973633
aF2.185750961303711
aF2.388925075531006
aF3.368568181991577
aI9999
aI9999
aaI1
aa(lp761
(lp762
I9999
aF3.0806572437286377
aF2.071315050125122
aF1.833389163017273
aF1.9993292093276978
aF2.809525728225708
aI9999
aI9999
aaI-1
aa(lp763
(lp764
I9999
aF3.8318846225738525
aF2.5795223712921143
aF2.2848622798919678
aF2.493396043777466
aF3.5075392723083496
aI9999
aI9999
aaI1
aa(lp765
(lp766
I9999
aF4.906083583831787
aF3.3129498958587646
aF0.2410372495651245
aF0.2410372495651245
aF4.533935070037842
aI9999
aI9999
aaI1
aa(lp767
(lp768
I9999
aF4.83757209777832
aF3.2432146072387695
aF2.8657565116882324
aF3.1199753284454346
aF0.3004944920539856
aF0.2609018385410309
aI9999
aaI1
aa(lp769
(lp770
I9999
aF5.150524139404297
aF3.4475793838500977
aF3.0434937477111816
aF3.31050705909729
aF0.300494521856308
aF0.2609018385410309
aI9999
aaI1
aa(lp771
(lp772
F0.23500008881092072
aF0.2609018385410309
aF3.568411350250244
aF3.1424596309661865
aF3.4101476669311523
aF4.756459712982178
aI9999
aI9999
aaI1
aa(lp773
(lp774
I9999
aF5.412917137145996
aF3.592876434326172
aF3.1561439037323
aF3.4168856143951416
aF4.748832702636719
aI9999
aI9999
aaI1
aa(lp775
(lp776
I9999
aF5.8377685546875
aF3.845036506652832
aF3.3625543117523193
aF3.624938488006592
aF0.300494521856308
aI9999
aI9999
aaI1
aa(lp777
(lp778
I9999
aI9999
aF4.19011116027832
aF3.6506216526031494
aF3.92165470123291
aF0.300494521856308
aI9999
aI9999
aaI-1
aa(lp779
(lp780
I9999
aI9999
aF4.512000560760498
aF3.914680004119873
aF4.188974380493164
aF0.300494521856308
aI9999
aI9999
aaI-1
aa(lp781
(lp782
F0.2350001037120819
aF0.26090186834335327
aF4.722146987915039
aF4.087230205535889
aF4.36394739151001
aI9999
aI9999
aI9999
aaI-1
aa(lp783
(lp784
I9999
aI9999
aF4.797362327575684
aF4.140621185302734
aF4.409459114074707
aI9999
aI9999
aI9999
aaI-1
aa(lp785
(lp786
I9999
aF0.2609018385410309
aF4.888892650604248
aF4.208498001098633
aF4.470910549163818
aI9999
aI9999
aI9999
aaI-1
aa(lp787
(lp788
F5.620451927185059
aF4.393080711364746
aF4.304784774780273
aF5.235474586486816
aI9999
aI9999
aI9999
aI9999
aaI-1
aa(lp789
(lp790
F5.287278652191162
aF4.447271347045898
aF4.627713203430176
aI9999
aF0.24103720486164093
aF0.300494521856308
aF0.26090192794799805
aF0.2350001484155655
aaI-1
aa(lp791
(lp792
F5.55418586730957
aF4.667520999908447
aF4.853031635284424
aI9999
aI9999
aI9999
aI9999
aI9999
aaI-1
aa(lp793
(lp794
F5.737985610961914
aF4.824195384979248
aF5.017949104309082
aI9999
aI9999
aI9999
aI9999
aI9999
aaI-1
aa(lp795
(lp796
F5.83892822265625
aF4.911720275878906
aF5.1114091873168945
aI9999
aI9999
aI9999
aI9999
aI9999
aaI-1
aa(lp797
(lp798
F5.856807231903076
aF4.9332122802734375
aF5.13966703414917
aI9999
aI9999
aI9999
aI9999
aI9999
aaI-1
aa(lp799
(lp800
I9999
aI9999
aF5.09251594543457
aF4.926698207855225
aF5.9023847579956055
aI9999
aI9999
aI9999
aaI-1
aa(lp801
(lp802
I9999
aI9999
aI9999
aI9999
aF4.972909927368164
aF4.777279376983643
aF5.677272796630859
aI9999
aaI-1
aa(lp803
(lp804
I9999
aI9999
aI9999
aF5.906743049621582
aF4.593972206115723
aF4.484616756439209
aF5.429717540740967
aI9999
aaI-1
aa(lp805
(lp806
I9999
aI9999
aF5.248921871185303
aF4.264235973358154
aF4.3084716796875
aF5.4416279792785645
aI9999
aI9999
aaI-1
aa(lp807
(lp808
I9999
aI9999
aF4.750879287719727
aF4.081033229827881
aF4.327119827270508
aF5.83299446105957
aI9999
aI9999
aaI-1
aa(lp809
(lp810
I9999
aI9999
aF4.8018317222595215
aF4.118405818939209
aF4.3605875968933105
aF5.8662848472595215
aI9999
aI9999
aaI-1
aa(lp811
(lp812
I9999
aI9999
aF4.860617160797119
aF4.165069580078125
aF4.40639066696167
aF5.921009540557861
aI9999
aI9999
aaI-1
aa(lp813
(lp814
I9999
aI9999
aF4.920060634613037
aF4.207233428955078
aF4.442617416381836
aF5.953753471374512
aI9999
aI9999
aaI-1
aa(lp815
(lp816
I9999
aI9999
aF4.943223476409912
aF4.219613075256348
aF4.448631286621094
aF5.9484782218933105
aI9999
aI9999
aaI-1
aa(lp817
(lp818
I9999
aI9999
aF4.997785568237305
aF4.258846759796143
aF4.483051300048828
aF5.981464385986328
aF0.2609018385410309
aF0.23500008881092072
aaI-1
aa(lp819
(lp820
I9999
aI9999
aF5.090689182281494
aF4.336598873138428
aF4.56356143951416
aI9999
aI9999
aI9999
aaI-1
aa(lp821
(lp822
F0.23500008881092072
aI9999
aF5.127157211303711
aF4.361999034881592
aF4.584958553314209
aI9999
aI9999
aI9999
aaI-1
aa(lp823
(lp824
I9999
aF4.657585620880127
aF4.457016944885254
aF5.273341655731201
aI9999
aI9999
aI9999
aI9999
aaI-1
aa(lp825
(lp826
F5.230804920196533
aF4.695660591125488
aF5.191779136657715
aI9999
aI9999
aF0.3004944920539856
aI9999
aI9999
aaI-1
aa(lp827
(lp828
F5.4734063148498535
aF4.894664287567139
aF5.391358375549316
aI9999
aI9999
aI9999
aI9999
aI9999
aaI-1
aa(lp829
(lp830
F5.583488941192627
aF4.996802806854248
aF5.507876873016357
aI9999
aI9999
aI9999
aI9999
aI9999
aaI-1
aa(lp831
(lp832
F5.671660900115967
aF5.097499370574951
aF5.642768859863281
aF0.24103721976280212
aF0.24103721976280212
aF0.300494521856308
aI9999
aI9999
aaI-1
aa(lp833
(lp834
F5.615148067474365
aF5.128884315490723
aF5.771002769470215
aI9999
aI9999
aI9999
aI9999
aI9999
aaI-1
aa(lp835
(lp836
F5.59279727935791
aF5.094982624053955
aF5.717343807220459
aI9999
aI9999
aI9999
aI9999
aI9999
aaI-1
aa(lp837
(lp838
F5.531642436981201
aF5.044797420501709
aF5.667381763458252
aI9999
aI9999
aI9999
aI9999
aI9999
aaI-1
aa(lp839
(lp840
I9999
aF5.950565814971924
aF5.005552291870117
aF5.208984375
aI9999
aI9999
aI9999
aI9999
aaI-1
aa(lp841
(lp842
I9999
aI9999
aI9999
aF5.803003787994385
aF4.828157901763916
aF4.976841449737549
aI9999
aI9999
aaI-1
aa(lp843
(lp844
I9999
aI9999
aI9999
aF5.205630779266357
aF4.437017440795898
aF4.671599388122559
aI9999
aI9999
aaI-1
aa(lp845
(lp846
I9999
aI9999
aI9999
aF4.955035209655762
aF4.203185558319092
aF4.40645694732666
aF5.845860481262207
aI9999
aaI-1
aa(lp847
(lp848
I9999
aI9999
aI9999
aF4.781052112579346
aF4.0450944900512695
aF4.2309722900390625
aF5.595165252685547
aI9999
aaI-1
aa(lp849
(lp850
I9999
aI9999
aI9999
aF4.725741386413574
aF3.9885387420654297
aF4.1628265380859375
aF5.488683700561523
aI9999
aaI-1
aa(lp851
(lp852
F0.23500005900859833
aI9999
aI9999
aF5.656108379364014
aF4.772091865539551
aF4.9790754318237305
aI9999
aI9999
aaI-1
aa(lp853
(lp854
I9999
aI9999
aI9999
aF0.24103721976280212
aF0.24103721976280212
aF0.300494521856308
aF0.2609018385410309
aI9999
aaI-1
aa(lp855
(lp856
I9999
aI9999
aI9999
aI9999
aF5.822348117828369
aI9999
aI9999
aI9999
aaI-1
aa(lp857
(lp858
I9999
aI9999
aI9999
aI9999
aF0.24103721976280212
aF0.300494521856308
aF0.2609017789363861
aI9999
aaI-1
aa(lp859
(lp860
I9999
aI9999
aI9999
aI9999
aF5.08308744430542
aF5.224270820617676
aI9999
aI9999
aaI-1
aa(lp861
(lp862
I9999
aI9999
aI9999
aF0.24103720486164093
aF0.24103720486164093
aF0.300494521856308
aF0.26090186834335327
aF0.2350001037120819
aaI-1
aa(lp863
(lp864
I9999
aI9999
aI9999
aF4.046594619750977
aF0.24103723466396332
aF0.30049455165863037
aF0.2609018385410309
aI9999
aaI1
aa(lp865
(lp866
I9999
aI9999
aF4.921422481536865
aF2.8671000003814697
aF2.350930690765381
aF2.393615961074829
aF3.053165912628174
aF5.797997951507568
aaI-1
aa(lp867
(lp868
I9999
aI9999
aF5.179173946380615
aF3.007302761077881
aF2.4620113372802734
aF2.5034239292144775
aF3.187798023223877
aI9999
aaI-1
aa(lp869
(lp870
I9999
aI9999
aF5.102382659912109
aF2.954444169998169
aF2.415532112121582
aF2.4534566402435303
aF3.119720220565796
aF5.879897594451904
aaI-1
aa(lp871
(lp872
I9999
aF3.7475473880767822
aF2.5887227058410645
aF2.329334259033203
aF2.5814530849456787
aF3.7202165126800537
aI9999
aI9999
aaI-1
aa(lp873
(lp874
I9999
aF3.278977632522583
aF2.475480556488037
aF2.3639490604400635
aF2.7903425693511963
aF4.487800121307373
aI9999
aI9999
aaI-1
aa(lp875
(lp876
I9999
aF3.3802967071533203
aF2.552583694458008
aF2.437999725341797
aF2.8783106803894043
aF4.630995750427246
aI9999
aI9999
aaI-1
aa(lp877
(lp878
I9999
aF3.412029504776001
aF2.583879232406616
aF2.4729669094085693
aF2.9263803958892822
aF4.729220390319824
aI9999
aI9999
aaI-1
aa(lp879
(lp880
I9999
aF3.3895249366760254
aF2.5713601112365723
aF2.464132070541382
aF2.9201552867889404
aF4.73228645324707
aI9999
aI9999
aaI-1
aa(lp881
(lp882
I9999
aF4.338090419769287
aF3.2533860206604004
aF3.0920522212982178
aF3.6303422451019287
aF5.780368804931641
aF0.2609018385410309
aF0.23500008881092072
aaI1
aa(lp883
(lp884
F0.23500008881092072
aF0.2609018385410309
aF4.189545631408691
aF4.015030384063721
aF4.758327960968018
aI9999
aI9999
aI9999
aaI-1
aa(lp885
(lp886
I9999
aF5.234628677368164
aF3.982173204421997
aF3.8238704204559326
aF4.542017936706543
aI9999
aI9999
aI9999
aaI-1
aa(lp887
(lp888
I9999
aF5.263223171234131
aF4.014080047607422
aF3.8616631031036377
aF4.596639156341553
aI9999
aI9999
aI9999
aaI-1
aa(lp889
(lp890
I9999
aF5.2087931632995605
aF3.981847047805786
aF3.8372297286987305
aF4.576552391052246
aI9999
aI9999
aI9999
aaI-1
aa(lp891
(lp892
I9999
aF5.127943992614746
aF3.929739236831665
aF3.793928384780884
aF4.534422397613525
aI9999
aI9999
aI9999
aaI-1
aa(lp893
(lp894
I9999
aF4.869719505310059
aF3.7766823768615723
aF3.6788578033447266
aF0.24103718996047974
aF0.3004944920539856
aF0.2609018385410309
aI9999
aaI-1
aa(lp895
(lp896
I9999
aF4.717015266418457
aF3.6465418338775635
aF3.54351806640625
aF4.267306327819824
aI9999
aI9999
aI9999
aaI-1
aa(lp897
(lp898
I9999
aF4.663980960845947
aF3.6102421283721924
aF3.5116820335388184
aF4.233823299407959
aI9999
aI9999
aI9999
aaI-1
aa(lp899
(lp900
I9999
aF4.603877544403076
aF3.5658364295959473
aF3.4700419902801514
aF4.185818195343018
aI9999
aI9999
aI9999
aaI-1
aa(lp901
(lp902
I9999
aF4.52001428604126
aF3.507312536239624
aF3.4178221225738525
aF4.129547595977783
aI9999
aI9999
aI9999
aaI-1
aa(lp903
(lp904
I9999
aF4.446206569671631
aF3.452995777130127
aF3.3670713901519775
aF4.071334362030029
aI9999
aI9999
aI9999
aaI1
aa(lp905
(lp906
I9999
aF4.360554218292236
aF3.3927512168884277
aF3.312974452972412
aF4.012570381164551
aI9999
aI9999
aI9999
aaI1
aa(lp907
(lp908
I9999
aF4.288388252258301
aF3.3424625396728516
aF3.2682294845581055
aF3.964641571044922
aI9999
aI9999
aI9999
aaI1
aa(lp909
(lp910
I9999
aF4.217409133911133
aF3.291788101196289
aF3.2221529483795166
aF3.913755178451538
aI9999
aI9999
aI9999
aaI1
aa(lp911
(lp912
I9999
aF4.166831970214844
aF3.258021354675293
aF3.1933839321136475
aF3.8850152492523193
aI9999
aI9999
aI9999
aaI1
aa(lp913
(lp914
I9999
aF4.127065181732178
aF3.2295546531677246
aF3.1674582958221436
aF3.8563451766967773
aI9999
aI9999
aI9999
aaI1
aa(lp915
(lp916
F4.579146862030029
aF3.3486194610595703
aF3.127039670944214
aF3.6013123989105225
aF5.536503791809082
aI9999
aI9999
aI9999
aaI1
aa(lp917
(lp918
F4.007634162902832
aF3.262376546859741
aF3.3016843795776367
aF4.178890705108643
aI9999
aI9999
aI9999
aI9999
aaI1
aa(lp919
(lp920
F3.3360836505889893
aF3.4953668117523193
aF4.633370876312256
aI9999
aI9999
aI9999
aI9999
aI9999
aaI1
aa(lp921
(lp922
F4.943436622619629
aI9999
aI9999
aI9999
aI9999
aI9999
aI9999
aI9999
aaI1
aa(lp923
(lp924
I9999
aI9999
aI9999
aI9999
aI9999
aI9999
aI9999
aI9999
aaI1
aa(lp925
(lp926
I9999
aI9999
aI9999
aI9999
aI9999
aI9999
aI9999
aI9999
aaI-1
aa(lp927
(lp928
I9999
aI9999
aI9999
aI9999
aI9999
aI9999
aI9999
aF4.715054035186768
aaI-1
aa(lp929
(lp930
I9999
aI9999
aI9999
aI9999
aI9999
aI9999
aI9999
aI9999
aaI-1
aa(lp931
(lp932
I9999
aI9999
aI9999
aI9999
aI9999
aI9999
aI9999
aF4.241384983062744
aaI-1
aa(lp933
(lp934
I9999
aI9999
aI9999
aI9999
aI9999
aF4.697866439819336
aF3.673402786254883
aF3.600651264190674
aaI-1
aa(lp935
(lp936
I9999
aI9999
aI9999
aI9999
aI9999
aI9999
aF4.59885311126709
aF3.508744955062866
aaI-1
aa(lp937
(lp938
I9999
aI9999
aI9999
aI9999
aF4.452053546905518
aF3.3920295238494873
aF3.260836601257324
aF3.878199577331543
aaI-1
aa(lp939
(lp940
I9999
aI9999
aF4.1155290603637695
aF3.2225375175476074
aF3.162090539932251
aF3.8520145416259766
aI9999
aI9999
aaI1
aa(lp941
(lp942
I9999
aI9999
aF4.415417194366455
aF3.2648794651031494
aF3.0722265243530273
aF3.5676157474517822
aF5.566679954528809
aI9999
aaI1
aa(lp943
(lp944
I9999
aI9999
aF4.378645896911621
aF3.2580132484436035
aF3.079214096069336
aF3.5929529666900635
aF5.655572414398193
aI9999
aaI1
aa(lp945
(lp946
I9999
aI9999
aF4.513223648071289
aF3.3319098949432373
aF3.1318469047546387
aF3.6324760913848877
aF5.655560493469238
aI9999
aaI1
aa(lp947
(lp948
F0.23500007390975952
aF0.2609018385410309
aF4.590600490570068
aF3.393878698348999
aF3.193262815475464
aF3.707723617553711
aF5.784037113189697
aI9999
aaI1
aa(lp949
(lp950
I9999
aI9999
aF4.56375789642334
aF3.3728020191192627
aF3.172626256942749
aF3.6827409267425537
aF5.742180347442627
aI9999
aaI1
aa(lp951
(lp952
I9999
aI9999
aF4.25823450088501
aF3.140488386154175
aF2.949852228164673
aF3.4187796115875244
aF5.315525054931641
aI9999
aaI1
aa(lp953
(lp954
I9999
aI9999
aF3.904130697250366
aF2.8718531131744385
aF2.6926777362823486
aF3.1146316528320312
aF4.825662136077881
aI9999
aaI1
aa(lp955
(lp956
I9999
aI9999
aF0.300494521856308
aF0.24103720486164093
aF0.24103720486164093
aF0.300494521856308
aF0.2609018385410309
aI9999
aaI-1
aa(lp957
(lp958
F1.9949597120285034
aF1.2799105644226074
aF1.102836012840271
aF1.1726256608963013
aF1.5870888233184814
aF3.5371906757354736
aI9999
aF0.2350008487701416
aaI-1
aa(lp959
(lp960
F2.3307573795318604
aF2.494706392288208
aF3.4090304374694824
aI9999
aI9999
aI9999
aF0.26090195775032043
aI9999
aaI-1
aa(lp961
(lp962
F4.057777404785156
aF4.655059814453125
aI9999
aI9999
aI9999
aF0.300494521856308
aI9999
aI9999
aaI-1
aa(lp963
(lp964
F0.23500007390975952
aF0.2609018385410309
aF0.300494521856308
aI9999
aI9999
aI9999
aI9999
aI9999
aaI-1
aa(lp965
(lp966
F5.099870681762695
aF5.896144390106201
aI9999
aI9999
aI9999
aI9999
aI9999
aI9999
aaI-1
aa(lp967
(lp968
F5.163827419281006
aF5.994704723358154
aI9999
aI9999
aI9999
aI9999
aI9999
aI9999
aaI-1
aa(lp969
(lp970
F5.130815029144287
aF5.980943202972412
aI9999
aI9999
aI9999
aI9999
aI9999
aI9999
aaI-1
aa(lp971
(lp972
F5.040239334106445
aF5.900488376617432
aI9999
aI9999
aI9999
aI9999
aI9999
aI9999
aaI-1
aa(lp973
(lp974
F4.9144368171691895
aF5.774175643920898
aI9999
aI9999
aI9999
aI9999
aI9999
aI9999
aaI-1
aa(lp975
(lp976
F5.020656108856201
aF4.691094875335693
aF5.405880928039551
aI9999
aI9999
aI9999
aI9999
aI9999
aaI-1
aa(lp977
(lp978
F5.14563512802124
aF4.45505428314209
aF4.757933616638184
aI9999
aI9999
aI9999
aI9999
aI9999
aaI-1
aa(lp979
(lp980
F4.7418622970581055
aF4.14792537689209
aF4.472691059112549
aI9999
aI9999
aI9999
aI9999
aI9999
aaI-1
aa(lp981
(lp982
F4.450437545776367
aF3.901620864868164
aF4.215906143188477
aF5.842581748962402
aI9999
aI9999
aI9999
aI9999
aaI-1
aa(lp983
(lp984
F3.6710128784179688
aF4.260366439819336
aI9999
aI9999
aI9999
aI9999
aI9999
aI9999
aaI-1
aa(lp985
(lp986
F3.599050283432007
aF4.4607696533203125
aI9999
aI9999
aI9999
aI9999
aI9999
aI9999
aaI-1
aa(lp987
(lp988
F3.827519178390503
aF3.470136880874634
aF3.8750534057617188
aF5.653305530548096
aI9999
aI9999
aI9999
aI9999
aaI-1
aa(lp989
(lp990
F5.085016250610352
aF3.6274254322052
aF3.331644058227539
aF3.770212411880493
aF5.623003959655762
aI9999
aI9999
aI9999
aaI-1
aa(lp991
(lp992
I9999
aI9999
aF4.909519195556641
aF3.417205810546875
aF3.089423179626465
aF3.440121650695801
aF4.99567985534668
aI9999
aaI-1
aa(lp993
(lp994
I9999
aI9999
aI9999
aF3.488881826400757
aF2.8302485942840576
aF2.8561949729919434
aF3.6019065380096436
aI9999
aaI1
aa(lp995
(lp996
I9999
aI9999
aF5.77679967880249
aF3.2355010509490967
aF2.604968786239624
aF2.612769603729248
aF3.2694742679595947
aF5.9359636306762695
aaI1
aa(lp997
(lp998
I9999
aI9999
aF5.716821670532227
aF3.1493592262268066
aF2.5169870853424072
aF2.509636163711548
aF3.117344856262207
aF5.566837310791016
aaI1
aa(lp999
(lp1000
I9999
aI9999
aI9999
aF3.3020834922790527
aF2.614934206008911
aF2.5884525775909424
aF3.186720132827759
aF5.580890655517578
aaI1
aa(lp1001
(lp1002
I9999
aF4.729423999786377
aF3.178948163986206
aF2.813300371170044
aF3.0674147605895996
aF0.30049437284469604
aI9999
aI9999
aaI1
aa(lp1003
(lp1004
F0.2350001335144043
aF4.170536994934082
aF3.1587066650390625
aF3.023411989212036
aF3.5781400203704834
aF5.783715724945068
aI9999
aI9999
aaI1
aa(lp1005
(lp1006
I9999
aF4.511496543884277
aF3.3645131587982178
aF3.1849734783172607
aF3.722947359085083
aF5.879342555999756
aI9999
aI9999
aaI1
aa(lp1007
(lp1008
I9999
aF4.8189568519592285
aF3.582674026489258
aF3.3840925693511963
aF0.24103718996047974
aF0.3004944920539856
aF0.2609018385410309
aI9999
aaI1
aa(lp1009
(lp1010
F4.054071426391602
aF3.501307249069214
aF0.3004942834377289
aF0.2410370111465454
aF0.2410370111465454
aF0.3004942834377289
aI9999
aI9999
aaI1
aa(lp1011
(lp1012
F3.8662266731262207
aF3.647620916366577
aF4.247952461242676
aI9999
aI9999
aI9999
aI9999
aI9999
aaI1
aa(lp1013
(lp1014
F4.051699638366699
aF3.812971830368042
aF4.428252696990967
aI9999
aI9999
aI9999
aI9999
aI9999
aaI1
aa(lp1015
(lp1016
F4.19278621673584
aF3.9526939392089844
aF4.599373817443848
aF0.24103721976280212
aF0.24103721976280212
aF0.300494521856308
aI9999
aI9999
aaI-1
aa(lp1017
(lp1018
F4.068704605102539
aF0.26090186834335327
aF0.30049455165863037
aI9999
aI9999
aF0.30049455165863037
aF0.2609017789363861
aI9999
aaI-1
aa(lp1019
(lp1020
F4.086693286895752
aI9999
aI9999
aI9999
aI9999
aI9999
aI9999
aI9999
aaI-1
aa(lp1021
(lp1022
F3.990712881088257
aI9999
aI9999
aI9999
aI9999
aI9999
aI9999
aI9999
aaI-1
aa(lp1023
(lp1024
F0.23500007390975952
aF4.190321922302246
aI9999
aI9999
aI9999
aI9999
aI9999
aI9999
aaI1
aa(lp1025
(lp1026
F0.23500007390975952
aF3.269376516342163
aI9999
aI9999
aI9999
aI9999
aI9999
aI9999
aaI1
aa(lp1027
(lp1028
F0.23500007390975952
aF2.2412936687469482
aF3.515371799468994
aI9999
aI9999
aI9999
aI9999
aI9999
aaI-1
aa(lp1029
(lp1030
F1.2797753810882568
aF1.5011271238327026
aF2.3858706951141357
aF0.2410372644662857
aF0.2410372644662857
aF0.30049458146095276
aF0.2609018087387085
aI9999
aaI-1
aa(lp1031
(lp1032
F1.8054349422454834
aF2.1168739795684814
aF3.3620691299438477
aI9999
aI9999
aF0.300494521856308
aI9999
aI9999
aaI-1
aa(lp1033
(lp1034
F3.0753462314605713
aF3.6223723888397217
aF5.802662372589111
aI9999
aI9999
aF0.300494521856308
aI9999
aI9999
aaI1
aa(lp1035
(lp1036
F0.23500007390975952
aF0.2609018385410309
aF0.300494521856308
aI9999
aI9999
aI9999
aI9999
aI9999
aaI-1
aa(lp1037
(lp1038
F3.6587612628936768
aF4.325037002563477
aI9999
aI9999
aI9999
aI9999
aI9999
aI9999
aaI-1
aa(lp1039
(lp1040
F3.600729465484619
aF4.261776924133301
aI9999
aI9999
aI9999
aI9999
aI9999
aI9999
aaI-1
aa(lp1041
(lp1042
F3.923222541809082
aF3.501805305480957
aF3.85003662109375
aF5.478983402252197
aI9999
aI9999
aI9999
aI9999
aaI-1
aa(lp1043
(lp1044
I9999
aF5.636162281036377
aF3.7743101119995117
aF3.332796096801758
aF3.6260969638824463
aF5.077638149261475
aI9999
aI9999
aaI-1
aa(lp1045
(lp1046
I9999
aF5.003144264221191
aF3.414811134338379
aF3.0500221252441406
aF3.3555052280426025
aF4.7800750732421875
aI9999
aI9999
aaI1
aa(lp1047
(lp1048
I9999
aF4.60902738571167
aF3.1312472820281982
aF2.788877487182617
aF3.059741735458374
aF4.339984893798828
aI9999
aI9999
aaI1
aa(lp1049
(lp1050
I9999
aF4.520692825317383
aF3.0556726455688477
aF2.713247537612915
aF2.9679014682769775
aF4.190298080444336
aI9999
aI9999
aaI1
aa(lp1051
(lp1052
I9999
aF4.631260395050049
aF3.1154329776763916
aF2.7583906650543213
aF3.0089144706726074
aF4.230086803436279
aF0.2609018385410309
aF0.23500008881092072
aaI1
aa(lp1053
(lp1054
I9999
aF4.952618598937988
aF3.306417465209961
aF2.9143624305725098
aF3.1653456687927246
aF0.3004944920539856
aF0.2609018385410309
aI9999
aaI1
aa(lp1055
(lp1056
I9999
aF5.385979175567627
aF3.567843198776245
aF3.1305015087127686
aF3.3853728771209717
aF0.300494521856308
aI9999
aI9999
aaI1
aa(lp1057
(lp1058
I9999
aF5.884715557098389
aF3.8666200637817383
aF3.376743793487549
aF3.6354856491088867
aF0.300494521856308
aI9999
aI9999
aaI1
aa(lp1059
(lp1060
F0.23500008881092072
aF0.2609018385410309
aF4.09604024887085
aF3.5657095909118652
aF3.8274736404418945
aI9999
aI9999
aI9999
aaI1
aa(lp1061
(lp1062
I9999
aI9999
aF4.215924263000488
aF3.651453971862793
aF3.9010212421417236
aI9999
aI9999
aI9999
aaI1
aa(lp1063
(lp1064
F5.335598468780518
aF3.917672634124756
aF3.6686336994171143
aF4.2377495765686035
aI9999
aI9999
aI9999
aI9999
aaI1
aa(lp1065
(lp1066
F4.850344181060791
aF3.8377842903137207
aF3.7964203357696533
aF4.67014217376709
aI9999
aF0.3004944622516632
aI9999
aI9999
aaI1
aa(lp1067
(lp1068
I9999
aF4.902073383331299
aF4.78446626663208
aF5.791445732116699
aI9999
aI9999
aI9999
aF0.23500002920627594
aaI-1
aa(lp1069
(lp1070
F5.917534351348877
aI9999
aI9999
aI9999
aI9999
aI9999
aI9999
aI9999
aaI-1
aa(lp1071
(lp1072
I9999
aI9999
aI9999
aI9999
aI9999
aI9999
aI9999
aI9999
aaI-1
aa(lp1073
(lp1074
I9999
aI9999
aI9999
aI9999
aI9999
aI9999
aI9999
aI9999
aaI-1
aa(lp1075
(lp1076
I9999
aI9999
aI9999
aI9999
aI9999
aI9999
aI9999
aI9999
aaI-1
aa(lp1077
(lp1078
I9999
aI9999
aI9999
aI9999
aI9999
aI9999
aI9999
aI9999
aaI-1
aa(lp1079
(lp1080
I9999
aI9999
aI9999
aI9999
aI9999
aI9999
aI9999
aI9999
aaI-1
aa(lp1081
(lp1082
I9999
aI9999
aI9999
aI9999
aI9999
aI9999
aI9999
aI9999
aaI-1
aa(lp1083
(lp1084
I9999
aI9999
aI9999
aI9999
aI9999
aI9999
aI9999
aI9999
aaI-1
aa(lp1085
(lp1086
I9999
aI9999
aI9999
aI9999
aI9999
aI9999
aI9999
aI9999
aaI-1
aa(lp1087
(lp1088
I9999
aI9999
aI9999
aI9999
aI9999
aI9999
aI9999
aI9999
aaI-1
aa(lp1089
(lp1090
I9999
aI9999
aI9999
aI9999
aI9999
aI9999
aI9999
aI9999
aaI-1
aa(lp1091
(lp1092
I9999
aI9999
aI9999
aI9999
aI9999
aI9999
aI9999
aI9999
aaI-1
aa(lp1093
(lp1094
I9999
aI9999
aI9999
aI9999
aI9999
aI9999
aI9999
aI9999
aaI-1
aa(lp1095
(lp1096
I9999
aI9999
aI9999
aI9999
aI9999
aI9999
aI9999
aI9999
aaI-1
aa(lp1097
(lp1098
I9999
aI9999
aI9999
aI9999
aI9999
aI9999
aI9999
aI9999
aaI-1
aa(lp1099
(lp1100
I9999
aI9999
aI9999
aI9999
aI9999
aI9999
aI9999
aI9999
aaI-1
aa(lp1101
(lp1102
I9999
aI9999
aI9999
aI9999
aI9999
aI9999
aI9999
aI9999
aaI-1
aa(lp1103
(lp1104
I9999
aI9999
aI9999
aI9999
aI9999
aI9999
aI9999
aI9999
aaI-1
aa(lp1105
(lp1106
I9999
aI9999
aI9999
aI9999
aI9999
aI9999
aI9999
aI9999
aaI-1
aa(lp1107
(lp1108
I9999
aI9999
aI9999
aI9999
aI9999
aI9999
aI9999
aI9999
aaI-1
aa(lp1109
(lp1110
I9999
aI9999
aI9999
aI9999
aI9999
aI9999
aI9999
aI9999
aaI-1
aa(lp1111
(lp1112
F0.23500007390975952
aF0.2609018385410309
aI9999
aI9999
aI9999
aI9999
aI9999
aI9999
aaI-1
aa(lp1113
(lp1114
F0.23500007390975952
aF0.2609018087387085
aF0.30049455165863037
aI9999
aI9999
aI9999
aI9999
aI9999
aaI-1
aa(lp1115
(lp1116
I9999
aF0.2609018385410309
aF0.30049455165863037
aI9999
aF0.24103723466396332
aI9999
aI9999
aI9999
aaI-1
aa(lp1117
(lp1118
I9999
aI9999
aF5.8906331062316895
aF5.205391883850098
aF5.667506694793701
aI9999
aI9999
aI9999
aaI-1
aa(lp1119
(lp1120
I9999
aI9999
aF5.832470893859863
aF5.153364658355713
aF5.61020040512085
aI9999
aI9999
aI9999
aaI-1
aa(lp1121
(lp1122
I9999
aI9999
aF5.627913951873779
aF4.976602077484131
aF5.421938419342041
aI9999
aI9999
aI9999
aaI-1
aa(lp1123
(lp1124
I9999
aI9999
aF5.4622979164123535
aF4.828771114349365
aF5.259429454803467
aI9999
aI9999
aI9999
aaI-1
aa(lp1125
(lp1126
I9999
aI9999
aF5.320324897766113
aF4.703972816467285
aF5.124244213104248
aI9999
aI9999
aI9999
aaI-1
aa(lp1127
(lp1128
F0.23500004410743713
aF0.2609018087387085
aF0.3004944622516632
aF4.102712154388428
aF4.440305233001709
aI9999
aI9999
aI9999
aaI-1
aa(lp1129
(lp1130
I9999
aF5.319116592407227
aF3.5309829711914062
aF3.101962089538574
aF3.3584213256835938
aF4.667983531951904
aI9999
aI9999
aaI1
aa(lp1131
(lp1132
I9999
aF5.329137325286865
aF3.556612730026245
aF3.1342833042144775
aF3.403574228286743
aF4.752152919769287
aI9999
aI9999
aaI1
aa(lp1133
(lp1134
I9999
aF5.050530910491943
aF3.372030735015869
aF2.972323179244995
aF3.2284305095672607
aF4.509162902832031
aI9999
aI9999
aaI1
aa(lp1135
(lp1136
I9999
aF4.813271522521973
aF3.2361233234405518
aF2.864328384399414
aF0.24103720486164093
aF0.300494521856308
aF0.2609018385410309
aI9999
aaI1
aa(lp1137
(lp1138
F0.2350001037120819
aF0.26090186834335327
aF3.10644268989563
aF2.7437899112701416
aF2.9860243797302246
aF4.182982444763184
aI9999
aI9999
aaI1
aa(lp1139
(lp1140
I9999
aF4.489189624786377
aF3.0092246532440186
aF2.65877628326416
aF2.8944003582000732
aF4.056543350219727
aI9999
aI9999
aaI1
aa(lp1141
(lp1142
I9999
aF0.2609018385410309
aF2.7689192295074463
aF2.4374630451202393
aF2.64412522315979
aF3.6859652996063232
aI9999
aI9999
aaI1
aa(lp1143
(lp1144
I9999
aF0.2609018385410309
aF2.31225848197937
aF2.0377960205078125
aF2.212989568710327
aF3.0900638103485107
aI9999
aI9999
aaI-1
aa(lp1145
(lp1146
I9999
aF2.989572763442993
aF2.0057265758514404
aF1.7730529308319092
aF1.9311360120773315
aF2.7085554599761963
aF0.2609018385410309
aF0.23500008881092072
aaI-1
aa(lp1147
(lp1148
I9999
aF2.870601177215576
aF1.9268357753753662
aF1.7038007974624634
aF1.8562204837799072
aF2.604576587677002
aI9999
aI9999
aaI-1
aa(lp1149
(lp1150
I9999
aF2.690821647644043
aF1.8070083856582642
aF1.5982880592346191
aF1.7417354583740234
aF2.444937229156494
aI9999
aI9999
aaI-1
aa(lp1151
(lp1152
I9999
aF2.5690364837646484
aF1.7250136137008667
aF1.5256537199020386
aF1.662466049194336
aF2.3334147930145264
aF5.854780197143555
aI9999
aaI-1
aa(lp1153
(lp1154
I9999
aF2.4652938842773438
aF1.6564148664474487
aF1.4655405282974243
aF1.5975481271743774
aF2.243556022644043
aF5.640469551086426
aI9999
aaI-1
aa(lp1155
(lp1156
I9999
aF2.374612331390381
aF1.5961861610412598
aF1.4126203060150146
aF1.5402486324310303
aF2.16391921043396
aF5.447666168212891
aI9999
aaI-1
aa(lp1157
(lp1158
I9999
aF2.3227145671844482
aF1.562201738357544
aF1.3830188512802124
aF1.5084723234176636
aF2.1203525066375732
aF5.347591400146484
aI9999
aaI-1
aa(lp1159
(lp1160
I9999
aF3.5392396450042725
aF2.368972063064575
aF2.0912716388702393
aF2.2747058868408203
aF3.183985471725464
aI9999
aI9999
aaI-1
aa(lp1161
(lp1162
I9999
aF4.866088390350342
aF3.3130125999450684
aF2.954622268676758
aF3.2457258701324463
aF4.612959861755371
aI9999
aI9999
aaI1
aa(lp1163
(lp1164
I9999
aF4.665414333343506
aF3.161720037460327
aF2.8118131160736084
aF3.080409526824951
aF4.359414100646973
aI9999
aI9999
aaI1
aa(lp1165
(lp1166
I9999
aF4.696978569030762
aF3.186608076095581
aF2.8358242511749268
aF3.1087210178375244
aF4.403891086578369
aI9999
aI9999
aaI1
aa(lp1167
(lp1168
I9999
aF4.6637701988220215
aF3.171884059906006
aF2.8269317150115967
aF3.1034889221191406
aF0.3004944920539856
aF0.2609018385410309
aF0.23500008881092072
aaI1
aa(lp1169
(lp1170
I9999
aF4.685404300689697
aF3.191049575805664
aF2.846423625946045
aF0.24103720486164093
aF0.3004944920539856
aF0.2609018385410309
aI9999
aaI1
aa(lp1171
(lp1172
I9999
aF4.721166610717773
aF3.220743179321289
aF2.875809907913208
aF0.24103720486164093
aF0.300494521856308
aI9999
aI9999
aaI1
aa(lp1173
(lp1174
I9999
aF4.752025127410889
aF3.232332944869995
aF2.8810367584228516
aF3.1631343364715576
aF4.4916863441467285
aI9999
aI9999
aaI1
aa(lp1175
(lp1176
I9999
aF4.730433464050293
aF3.218883514404297
aF2.869718074798584
aF3.1514265537261963
aF4.476654052734375
aI9999
aI9999
aaI1
aa(lp1177
(lp1178
I9999
aF4.7338337898254395
aF3.223257064819336
aF2.874732494354248
aF3.158133029937744
aF4.488842010498047
aI9999
aI9999
aaI1
aa(lp1179
(lp1180
I9999
aF4.691292762756348
aF3.1946442127227783
aF2.8494045734405518
aF3.130514144897461
aF4.450042724609375
aI9999
aI9999
aaI1
aa(lp1181
(lp1182
F3.5099902153015137
aF2.843045949935913
aF2.8655455112457275
aF3.6079940795898438
aI9999
aI9999
aI9999
aI9999
aaI1
aa(lp1183
(lp1184
F3.135653257369995
aF2.8926427364349365
aF3.2884604930877686
aF4.942831039428711
aI9999
aF0.3004944920539856
aF0.26090195775032043
aI9999
aaI1
aa(lp1185
(lp1186
F3.3051021099090576
aF3.049299955368042
aF3.4669604301452637
aF5.212174415588379
aI9999
aI9999
aI9999
aI9999
aaI1
aa(lp1187
(lp1188
F3.4075052738189697
aF3.1512415409088135
aF3.591810464859009
aF5.423015594482422
aI9999
aI9999
aI9999
aI9999
aaI1
aa(lp1189
(lp1190
F3.439441680908203
aF3.186638593673706
aF3.639226198196411
aF5.513073444366455
aI9999
aI9999
aI9999
aI9999
aaI1
aa(lp1191
(lp1192
F3.407064437866211
aF3.163332462310791
aF3.6207306385040283
aF5.506468772888184
aI9999
aI9999
aI9999
aI9999
aaI1
aa(lp1193
(lp1194
F3.345093250274658
aF3.11044979095459
aF3.5658817291259766
aF5.438156604766846
aI9999
aI9999
aI9999
aI9999
aaI1
aa(lp1195
(lp1196
F3.267026424407959
aF3.042821168899536
aF3.4944353103637695
aF5.345498561859131
aI9999
aI9999
aI9999
aI9999
aaI1
aa(lp1197
(lp1198
F4.930630207061768
aF3.3367533683776855
aF2.964960813522339
aF3.245507001876831
aF4.587194919586182
aI9999
aI9999
aI9999
aaI1
aa(lp1199
(lp1200
I9999
aI9999
aF4.844675540924072
aF3.1960582733154297
aF2.7975971698760986
aF3.0185298919677734
aF4.17406702041626
aI9999
aaI1
aa(lp1201
(lp1202
I9999
aI9999
aF4.663180351257324
aF2.9318950176239014
aF2.4986276626586914
aF2.6303768157958984
aF3.509946584701538
aI9999
aaI1
aa(lp1203
(lp1204
I9999
aI9999
aF4.172390937805176
aF2.6034646034240723
aF2.2097699642181396
aF2.3178889751434326
aF3.077357769012451
aI9999
aaI1
aa(lp1205
(lp1206
I9999
aI9999
aF3.9418721199035645
aF2.4510080814361572
aF2.07651424407959
aF2.1745269298553467
aF2.880418062210083
aI9999
aaI-1
aa(lp1207
(lp1208
I9999
aI9999
aF3.828871965408325
aF2.3691673278808594
aF2.0020487308502197
aF2.091804265975952
aF2.7621748447418213
aF5.734694957733154
aaI-1
aa(lp1209
(lp1210
F0.23500005900859833
aI9999
aF5.17749547958374
aF3.2021994590759277
aF2.7053580284118652
aF2.8260550498962402
aF3.730661630630493
aI9999
aaI1
aa(lp1211
(lp1212
I9999
aI9999
aI9999
aF4.331817626953125
aF0.24103721976280212
aF0.300494521856308
aF5.0147504806518555
aI9999
aaI-1
aa(lp1213
(lp1214
I9999
aI9999
aI9999
aF4.442309379577637
aF3.7249324321746826
aF3.865551471710205
aF5.057077884674072
aI9999
aaI-1
aa(lp1215
(lp1216
I9999
aI9999
aI9999
aF4.719049453735352
aF3.945396900177002
aF4.0839338302612305
aF5.324405670166016
aI9999
aaI-1
aa(lp1217
(lp1218
I9999
aI9999
aI9999
aF4.943121910095215
aF4.119678974151611
aF4.252708911895752
aF5.5241193771362305
aI9999
aaI-1
aa(lp1219
(lp1220
I9999
aI9999
aI9999
aI9999
aF4.625701904296875
aF4.271402835845947
aF4.860889434814453
aI9999
aaI-1
aa(lp1221
(lp1222
I9999
aI9999
aF5.912655353546143
aF4.642735481262207
aF4.565509796142578
aF5.576066970825195
aI9999
aI9999
aaI-1
aa(lp1223
(lp1224
I9999
aI9999
aF5.4816741943359375
aF4.651031494140625
aF4.877002716064453
aI9999
aI9999
aI9999
aaI-1
aa(lp1225
(lp1226
I9999
aI9999
aI9999
aI9999
aI9999
aI9999
aI9999
aI9999
aaI-1
aa(lp1227
(lp1228
I9999
aI9999
aI9999
aI9999
aI9999
aI9999
aI9999
aI9999
aaI-1
aa(lp1229
(lp1230
I9999
aI9999
aI9999
aI9999
aI9999
aI9999
aI9999
aI9999
aaI-1
aa(lp1231
(lp1232
I9999
aI9999
aI9999
aI9999
aI9999
aI9999
aI9999
aI9999
aaI-1
aa(lp1233
(lp1234
I9999
aI9999
aI9999
aI9999
aI9999
aI9999
aI9999
aI9999
aaI-1
aa(lp1235
(lp1236
I9999
aI9999
aI9999
aI9999
aI9999
aI9999
aI9999
aI9999
aaI-1
aa(lp1237
(lp1238
I9999
aI9999
aI9999
aI9999
aI9999
aI9999
aI9999
aI9999
aaI-1
aa(lp1239
(lp1240
I9999
aI9999
aI9999
aI9999
aI9999
aI9999
aI9999
aI9999
aaI-1
aa(lp1241
(lp1242
I9999
aI9999
aF5.594296932220459
aI9999
aI9999
aI9999
aI9999
aI9999
aaI-1
aa(lp1243
(lp1244
I9999
aI9999
aF5.6672587394714355
aI9999
aI9999
aI9999
aI9999
aI9999
aaI-1
aa(lp1245
(lp1246
I9999
aI9999
aF5.672464370727539
aI9999
aI9999
aI9999
aI9999
aI9999
aaI-1
aa(lp1247
(lp1248
I9999
aI9999
aF5.607293128967285
aI9999
aI9999
aI9999
aI9999
aI9999
aaI-1
aa(lp1249
(lp1250
I9999
aI9999
aI9999
aI9999
aI9999
aI9999
aI9999
aF0.23500007390975952
aaI-1
aa(lp1251
(lp1252
I9999
aI9999
aI9999
aI9999
aI9999
aI9999
aI9999
aF0.23500005900859833
aaI-1
aa(lp1253
(lp1254
I9999
aI9999
aI9999
aF0.24103718996047974
aF0.24103718996047974
aI9999
aI9999
aI9999
aaI-1
aa(lp1255
(lp1256
F0.23500005900859833
aF0.2609018087387085
aI9999
aI9999
aI9999
aI9999
aI9999
aI9999
aaI-1
aa(lp1257
(lp1258
F5.195479869842529
aI9999
aI9999
aI9999
aI9999
aI9999
aI9999
aI9999
aaI-1
aa(lp1259
(lp1260
F3.515807628631592
aF4.057723522186279
aI9999
aI9999
aI9999
aI9999
aI9999
aI9999
aaI-1
aa(lp1261
(lp1262
F2.325546979904175
aF2.693279266357422
aF4.1820597648620605
aI9999
aI9999
aF0.300494521856308
aF0.2609018087387085
aF0.23500005900859833
aaI-1
aa(lp1263
(lp1264
F2.234839916229248
aF2.5996949672698975
aF4.069161415100098
aI9999
aI9999
aI9999
aI9999
aI9999
aaI-1
aa(lp1265
(lp1266
F1.9255051612854004
aF2.245724678039551
aF3.5319528579711914
aI9999
aI9999
aI9999
aI9999
aI9999
aaI-1
aa(lp1267
(lp1268
I9999
aI9999
aI9999
aI9999
aI9999
aI9999
aI9999
aI9999
aaI-1
aa(lp1269
(lp1270
I9999
aI9999
aI9999
aI9999
aI9999
aI9999
aI9999
aI9999
aaI-1
aa(lp1271
(lp1272
I9999
aI9999
aI9999
aI9999
aI9999
aI9999
aI9999
aI9999
aaI-1
aa(lp1273
(lp1274
I9999
aI9999
aI9999
aI9999
aI9999
aI9999
aI9999
aI9999
aaI-1
aa(lp1275
(lp1276
I9999
aI9999
aI9999
aI9999
aI9999
aI9999
aI9999
aI9999
aaI-1
aa(lp1277
(lp1278
I9999
aI9999
aI9999
aI9999
aI9999
aI9999
aI9999
aI9999
aaI-1
aa(lp1279
(lp1280
I9999
aI9999
aI9999
aI9999
aI9999
aI9999
aI9999
aI9999
aaI-1
aa(lp1281
(lp1282
I9999
aI9999
aI9999
aI9999
aI9999
aI9999
aI9999
aI9999
aaI-1
aa(lp1283
(lp1284
I9999
aI9999
aI9999
aI9999
aI9999
aF0.300494521856308
aI9999
aI9999
aaI-1
aa(lp1285
(lp1286
I9999
aI9999
aI9999
aI9999
aF0.24103721976280212
aF0.300494521856308
aI9999
aI9999
aaI1
aa(lp1287
(lp1288
F0.23500007390975952
aF0.2609018385410309
aF0.300494521856308
aI9999
aI9999
aI9999
aI9999
aI9999
aaI-1
aa(lp1289
(lp1290
I9999
aI9999
aI9999
aI9999
aI9999
aI9999
aI9999
aI9999
aaI1
aa(lp1291
(lp1292
I9999
aI9999
aI9999
aI9999
aI9999
aI9999
aI9999
aI9999
aaI1
aa(lp1293
(lp1294
I9999
aI9999
aI9999
aI9999
aI9999
aI9999
aI9999
aI9999
aaI1
aa(lp1295
(lp1296
F3.6620852947235107
aF5.110367298126221
aI9999
aI9999
aI9999
aI9999
aI9999
aI9999
aaI-1
aa(lp1297
(lp1298
F4.25272798538208
aI9999
aI9999
aI9999
aI9999
aI9999
aI9999
aI9999
aaI-1
aa(lp1299
(lp1300
F4.519959449768066
aI9999
aI9999
aI9999
aI9999
aI9999
aI9999
aI9999
aaI-1
aa(lp1301
(lp1302
F4.581979274749756
aI9999
aI9999
aI9999
aI9999
aI9999
aI9999
aI9999
aaI-1
aa(lp1303
(lp1304
F3.6110410690307617
aF4.240737438201904
aI9999
aI9999
aI9999
aI9999
aI9999
aI9999
aaI-1
aa(lp1305
(lp1306
F5.19498872756958
aF3.842534065246582
aF3.6165931224823
aF4.200773239135742
aI9999
aI9999
aI9999
aI9999
aaI-1
aa(lp1307
(lp1308
F4.982963562011719
aF3.6774704456329346
aF3.4558584690093994
aF4.007270336151123
aI9999
aI9999
aI9999
aI9999
aaI-1
aa(lp1309
(lp1310
F4.711981773376465
aF3.448669910430908
aF3.2223289012908936
aF3.7133595943450928
aF5.7150468826293945
aI9999
aI9999
aI9999
aaI-1
aa(lp1311
(lp1312
I9999
aF5.640868186950684
aF3.5641651153564453
aF3.0455446243286133
aF3.213804006576538
aF4.302929401397705
aI9999
aI9999
aaI1
aa(lp1313
(lp1314
I9999
aI9999
aF3.8075449466705322
aF2.936072826385498
aF2.8477487564086914
aF3.4218802452087402
aF5.698135852813721
aI9999
aaI1
aa(lp1315
(lp1316
I9999
aI9999
aF3.6087751388549805
aF2.7639737129211426
aF2.667332172393799
aF3.186396598815918
aF5.244799613952637
aI9999
aaI1
aa(lp1317
(lp1318
I9999
aI9999
aF3.5977368354797363
aF2.733949661254883
aF2.623180627822876
aF3.113008737564087
aF5.058475971221924
aI9999
aaI1
aa(lp1319
(lp1320
I9999
aI9999
aF3.827415943145752
aF2.874728202819824
aF2.735110282897949
aF3.2151196002960205
aF5.130760669708252
aI9999
aaI1
aa(lp1321
(lp1322
I9999
aI9999
aF4.2284321784973145
aF3.1540634632110596
aF2.9861884117126465
aF3.491147518157959
aF5.514919281005859
aI9999
aaI1
aa(lp1323
(lp1324
F0.23500007390975952
aF0.2609018385410309
aF0.300494521856308
aF3.3510231971740723
aF3.168696880340576
aF3.6993966102600098
aF5.829005241394043
aI9999
aaI1
aa(lp1325
(lp1326
I9999
aI9999
aF4.931739807128906
aF3.616406202316284
aF3.3834774494171143
aF3.9045653343200684
aI9999
aI9999
aaI1
aa(lp1327
(lp1328
I9999
aI9999
aF5.224009990692139
aF3.803995132446289
aF3.542027235031128
aF4.066614151000977
aI9999
aI9999
aaI1
aa(lp1329
(lp1330
I9999
aI9999
aF5.532943248748779
aF4.003353118896484
aF3.7116661071777344
aF4.241924285888672
aI9999
aI9999
aaI-1
aa(lp1331
(lp1332
I9999
aI9999
aF5.830428123474121
aF4.192869186401367
aF3.8715338706970215
aF4.405610084533691
aI9999
aI9999
aaI-1
aa(lp1333
(lp1334
I9999
aI9999
aI9999
aF4.359482765197754
aF4.009751319885254
aF4.5443572998046875
aI9999
aI9999
aaI-1
aa(lp1335
(lp1336
I9999
aI9999
aI9999
aF4.551954746246338
aF4.161251544952393
aF4.686267852783203
aI9999
aI9999
aaI-1
aa(lp1337
(lp1338
I9999
aI9999
aI9999
aF4.847850799560547
aF4.394724369049072
aF4.906991004943848
aI9999
aF0.23500007390975952
aaI-1
aa(lp1339
(lp1340
I9999
aI9999
aI9999
aF5.24494743347168
aF4.738280296325684
aF5.272159099578857
aI9999
aF0.23500007390975952
aaI-1
aa(lp1341
(lp1342
F0.23500007390975952
aF0.2609018385410309
aF0.300494521856308
aF5.540204048156738
aF5.024350643157959
aF5.6122565269470215
aI9999
aI9999
aaI-1
aa(lp1343
(lp1344
I9999
aI9999
aI9999
aF5.695982456207275
aF5.153670787811279
aF5.743246078491211
aI9999
aI9999
aaI-1
aa(lp1345
(lp1346
F0.23500007390975952
aF0.2609018385410309
aF0.3004944920539856
aF5.820169448852539
aF5.257762908935547
aF5.849981307983398
aI9999
aI9999
aaI-1
aa(lp1347
(lp1348
F0.23500007390975952
aF0.2609018385410309
aF0.300494521856308
aF0.24103720486164093
aF5.330863952636719
aF5.917812347412109
aI9999
aI9999
aaI-1
aa(lp1349
(lp1350
I9999
aI9999
aI9999
aF0.24161270260810852
aF5.3527913093566895
aF5.9340128898620605
aI9999
aI9999
aaI-1
aa(lp1351
(lp1352
F0.23500007390975952
aF0.2609018385410309
aF0.300494521856308
aF0.24103720486164093
aF5.3394646644592285
aF5.918603420257568
aI9999
aI9999
aaI-1
aa(lp1353
(lp1354
I9999
aI9999
aI9999
aF5.863407135009766
aF5.2899699211120605
aF5.878172874450684
aI9999
aF0.23500007390975952
aaI-1
aa(lp1355
(lp1356
I9999
aI9999
aI9999
aF5.80946159362793
aF5.245980262756348
aF5.834514617919922
aI9999
aI9999
aaI-1
aa(lp1357
(lp1358
I9999
aI9999
aI9999
aF5.793743133544922
aF5.235518932342529
aF5.827054977416992
aI9999
aI9999
aaI-1
aa(lp1359
(lp1360
I9999
aI9999
aI9999
aF5.77286434173584
aF5.222804546356201
aF5.819807052612305
aI9999
aI9999
aaI-1
aa(lp1361
(lp1362
I9999
aI9999
aI9999
aF5.752628803253174
aF5.209153175354004
aF5.809835433959961
aI9999
aI9999
aaI-1
aa(lp1363
(lp1364
I9999
aI9999
aI9999
aF5.723372936248779
aF5.190548896789551
aF5.797996997833252
aI9999
aI9999
aaI-1
aa(lp1365
(lp1366
F0.23500008881092072
aF0.2609018385410309
aI9999
aF5.692421913146973
aF5.171605587005615
aF5.787201404571533
aI9999
aI9999
aaI-1
aa(lp1367
(lp1368
F0.23500007390975952
aF0.2609018385410309
aF0.3004944920539856
aF0.24103720486164093
aF5.141357421875
aF5.754276275634766
aI9999
aI9999
aaI-1
aa(lp1369
(lp1370
F0.23500007390975952
aF0.2609018385410309
aF0.300494521856308
aF0.24103720486164093
aF5.097249507904053
aF5.714646339416504
aI9999
aI9999
aaI-1
aa(lp1371
(lp1372
I9999
aI9999
aI9999
aF5.5254621505737305
aF5.043989658355713
aF5.672042369842529
aI9999
aF0.23500008881092072
aaI-1
aa(lp1373
(lp1374
I9999
aI9999
aI9999
aF5.4732890129089355
aF5.00401496887207
aF5.635951042175293
aI9999
aI9999
aaI-1
aa(lp1375
(lp1376
I9999
aI9999
aI9999
aF5.436448097229004
aF4.976165294647217
aF5.611364364624023
aI9999
aI9999
aaI-1
aa(lp1377
(lp1378
I9999
aI9999
aI9999
aF5.401107311248779
aF4.947560787200928
aF5.583474159240723
aI9999
aI9999
aaI-1
aa(lp1379
(lp1380
I9999
aI9999
aI9999
aF5.373622417449951
aF4.926769256591797
aF5.5651350021362305
aI9999
aI9999
aaI-1
aa(lp1381
(lp1382
I9999
aI9999
aI9999
aF5.347280025482178
aF4.9095458984375
aF5.553808689117432
aI9999
aI9999
aaI-1
aa(lp1383
(lp1384
I9999
aI9999
aI9999
aF5.323797702789307
aF4.891303062438965
aF5.537074565887451
aI9999
aI9999
aaI-1
aa(lp1385
(lp1386
I9999
aI9999
aI9999
aF5.296756267547607
aF4.869584083557129
aF5.516173839569092
aI9999
aI9999
aaI-1
aa(lp1387
(lp1388
I9999
aI9999
aI9999
aF5.267556667327881
aF4.84673547744751
aF5.495013236999512
aI9999
aI9999
aaI-1
aa(lp1389
(lp1390
I9999
aI9999
aI9999
aF5.227961540222168
aF4.814088344573975
aF5.462482452392578
aI9999
aI9999
aaI-1
aa(lp1391
(lp1392
I9999
aI9999
aI9999
aF5.1888651847839355
aF4.781167507171631
aF5.4287848472595215
aI9999
aI9999
aaI-1
aa(lp1393
(lp1394
I9999
aI9999
aI9999
aF5.152160167694092
aF4.751917362213135
aF5.4010138511657715
aI9999
aI9999
aaI-1
aa(lp1395
(lp1396
I9999
aI9999
aI9999
aF5.123307704925537
aF4.726609230041504
aF5.373801231384277
aI9999
aI9999
aaI-1
aa(lp1397
(lp1398
I9999
aI9999
aI9999
aF5.095625400543213
aF4.702845096588135
aF5.348902225494385
aI9999
aI9999
aaI-1
aa(lp1399
(lp1400
I9999
aI9999
aI9999
aF5.064733505249023
aF4.672845363616943
aF5.313004016876221
aI9999
aI9999
aaI-1
aa(lp1401
(lp1402
I9999
aI9999
aI9999
aF5.038986682891846
aF4.648692607879639
aF5.285067558288574
aI9999
aI9999
aaI-1
aa(lp1403
(lp1404
I9999
aI9999
aI9999
aF5.0262770652771
aF4.6338934898376465
aF5.264582633972168
aI9999
aI9999
aaI-1
aa(lp1405
(lp1406
I9999
aI9999
aI9999
aF5.010842323303223
aF4.622150421142578
aF5.2542033195495605
aI9999
aI9999
aaI-1
aa(lp1407
(lp1408
I9999
aI9999
aI9999
aF4.9968390464782715
aF4.609714508056641
aF5.240640640258789
aI9999
aI9999
aaI-1
aa(lp1409
(lp1410
I9999
aI9999
aI9999
aF4.980755805969238
aF4.597116947174072
aF5.228991508483887
aI9999
aI9999
aaI-1
aa(lp1411
(lp1412
I9999
aI9999
aI9999
aF4.795083999633789
aF4.437252044677734
aF5.0609660148620605
aI9999
aI9999
aaI-1
aa(lp1413
(lp1414
I9999
aI9999
aI9999
aF4.351770401000977
aF4.02665901184082
aF4.592223644256592
aI9999
aF0.23500007390975952
aaI-1
aa(lp1415
(lp1416
F0.23500008881092072
aF0.2609018385410309
aF5.625500679016113
aF4.0385541915893555
aF3.724799871444702
aF4.233569622039795
aI9999
aI9999
aaI-1
aa(lp1417
(lp1418
I9999
aI9999
aF5.611496925354004
aF4.025244235992432
aF3.7105376720428467
aF4.214995384216309
aI9999
aI9999
aaI-1
aa(lp1419
(lp1420
I9999
aI9999
aF5.538525581359863
aF3.9697415828704834
aF3.65745210647583
aF4.152408123016357
aI9999
aI9999
aaI-1
aa(lp1421
(lp1422
I9999
aI9999
aF5.477230072021484
aF3.9231135845184326
aF3.612854242324829
aF4.099832057952881
aI9999
aI9999
aaI-1
aa(lp1423
(lp1424
I9999
aI9999
aF5.489795684814453
aF3.9177069664001465
aF3.599177122116089
aF4.074047088623047
aI9999
aI9999
aaI-1
aa(lp1425
(lp1426
I9999
aI9999
aF5.555161476135254
aF3.9631006717681885
aF3.640125274658203
aF4.119509696960449
aI9999
aI9999
aaI-1
aa(lp1427
(lp1428
F0.23500007390975952
aF0.2609018385410309
aF5.590970516204834
aF3.9983232021331787
aF3.6783244609832764
aF4.169640064239502
aI9999
aI9999
aaI-1
aa(lp1429
(lp1430
I9999
aI9999
aF5.618000507354736
aF4.013106822967529
aF3.689177989959717
aF4.178701400756836
aI9999
aI9999
aaI-1
aa(lp1431
(lp1432
I9999
aI9999
aF5.656884670257568
aF4.037744522094727
aF3.709934949874878
aF4.1999831199646
aI9999
aI9999
aaI-1
aa(lp1433
(lp1434
I9999
aI9999
aF5.734368324279785
aF4.076809406280518
aF3.7361061573028564
aF4.2182230949401855
aI9999
aI9999
aaI-1
aa(lp1435
(lp1436
I9999
aI9999
aF5.8240556716918945
aF4.140320301055908
aF3.794159412384033
aF4.283592224121094
aI9999
aI9999
aaI-1
aa(lp1437
(lp1438
I9999
aI9999
aF5.94355583190918
aF4.220004558563232
aF3.8640425205230713
aF4.358829975128174
aI9999
aI9999
aaI-1
aa(lp1439
(lp1440
F0.23500008881092072
aF0.2609018385410309
aF5.992734909057617
aF4.265700340270996
aF3.9123265743255615
aF4.420828342437744
aI9999
aI9999
aaI-1
aa(lp1441
(lp1442
I9999
aI9999
aF5.967099189758301
aF4.248341083526611
aF3.896937608718872
aF4.404062747955322
aI9999
aI9999
aaI-1
aa(lp1443
(lp1444
I9999
aI9999
aF5.933570384979248
aF4.222530841827393
aF3.8721020221710205
aF4.374636173248291
aI9999
aI9999
aaI-1
aa(lp1445
(lp1446
I9999
aI9999
aF5.898828029632568
aF4.1968913078308105
aF3.8480422496795654
aF4.346813201904297
aI9999
aI9999
aaI-1
aa(lp1447
(lp1448
I9999
aI9999
aI9999
aF5.625746250152588
aF4.122749328613281
aF3.855562210083008
aF4.447307109832764
aI9999
aaI-1
aa(lp1449
(lp1450
I9999
aI9999
aI9999
aI9999
aF4.402299404144287
aF3.7951905727386475
aF4.037254810333252
aI9999
aaI-1
aa(lp1451
(lp1452
I9999
aI9999
aI9999
aI9999
aF4.259607791900635
aF3.695911169052124
aF3.9550862312316895
aI9999
aaI-1
aa(lp1453
(lp1454
I9999
aI9999
aI9999
aI9999
aI9999
aI9999
aI9999
aI9999
aaI-1
aa(lp1455
(lp1456
I9999
aI9999
aI9999
aI9999
aI9999
aI9999
aI9999
aI9999
aaI-1
aa(lp1457
(lp1458
I9999
aI9999
aI9999
aI9999
aI9999
aI9999
aI9999
aI9999
aaI-1
aa(lp1459
(lp1460
I9999
aI9999
aI9999
aI9999
aI9999
aI9999
aI9999
aI9999
aaI-1
aa(lp1461
(lp1462
I9999
aI9999
aI9999
aI9999
aI9999
aI9999
aI9999
aI9999
aaI-1
aa(lp1463
(lp1464
I9999
aI9999
aI9999
aI9999
aI9999
aI9999
aI9999
aI9999
aaI-1
aa(lp1465
(lp1466
I9999
aI9999
aI9999
aI9999
aI9999
aI9999
aI9999
aI9999
aaI-1
aa(lp1467
(lp1468
I9999
aI9999
aI9999
aI9999
aI9999
aI9999
aI9999
aI9999
aaI-1
aa(lp1469
(lp1470
I9999
aI9999
aI9999
aI9999
aI9999
aI9999
aI9999
aI9999
aaI-1
aa(lp1471
(lp1472
I9999
aI9999
aI9999
aI9999
aI9999
aI9999
aI9999
aI9999
aaI-1
aa(lp1473
(lp1474
I9999
aI9999
aI9999
aI9999
aI9999
aI9999
aI9999
aI9999
aaI-1
aa(lp1475
(lp1476
I9999
aI9999
aI9999
aI9999
aI9999
aI9999
aI9999
aI9999
aaI-1
aa(lp1477
(lp1478
I9999
aI9999
aI9999
aI9999
aI9999
aI9999
aI9999
aI9999
aaI-1
aa(lp1479
(lp1480
I9999
aI9999
aI9999
aI9999
aI9999
aI9999
aI9999
aI9999
aaI-1
aa(lp1481
(lp1482
I9999
aI9999
aI9999
aI9999
aI9999
aI9999
aI9999
aI9999
aaI-1
aa(lp1483
(lp1484
I9999
aI9999
aI9999
aI9999
aI9999
aI9999
aI9999
aI9999
aaI-1
aa(lp1485
(lp1486
I9999
aI9999
aI9999
aI9999
aI9999
aI9999
aI9999
aI9999
aaI-1
aa(lp1487
(lp1488
F5.264966011047363
aI9999
aI9999
aI9999
aI9999
aI9999
aI9999
aI9999
aaI-1
aa(lp1489
(lp1490
F5.2481865882873535
aI9999
aI9999
aI9999
aI9999
aI9999
aI9999
aI9999
aaI-1
aa(lp1491
(lp1492
F5.058258056640625
aI9999
aI9999
aI9999
aI9999
aI9999
aI9999
aI9999
aaI-1
aa(lp1493
(lp1494
F4.79636287689209
aI9999
aI9999
aI9999
aI9999
aI9999
aI9999
aI9999
aaI-1
aa(lp1495
(lp1496
F4.4976630210876465
aI9999
aI9999
aI9999
aI9999
aI9999
aI9999
aI9999
aaI-1
aa(lp1497
(lp1498
F4.175432205200195
aI9999
aI9999
aI9999
aI9999
aI9999
aI9999
aI9999
aaI-1
aa(lp1499
(lp1500
F3.6191844940185547
aF3.6471846103668213
aF4.591126918792725
aI9999
aI9999
aI9999
aI9999
aI9999
aaI-1
aa(lp1501
(lp1502
F3.3052268028259277
aF3.076032876968384
aF3.5296738147735596
aI9999
aI9999
aI9999
aI9999
aI9999
aaI1
aa(lp1503
(lp1504
F4.785656452178955
aF3.023871660232544
aF2.5839011669158936
aF2.7266862392425537
aF3.6507904529571533
aI9999
aI9999
aI9999
aaI1
aa(lp1505
(lp1506
F4.871601581573486
aF2.617396354675293
aF2.069319009780884
aF2.0457255840301514
aF2.5146076679229736
aI9999
aI9999
aI9999
aaI1
aa(lp1507
(lp1508
F3.9001471996307373
aF2.085627555847168
aF1.645622730255127
aF1.624335527420044
aF1.992876648902893
aF3.4643795490264893
aI9999
aI9999
aaI-1
aa(lp1509
(lp1510
F5.015195846557617
aF2.660290479660034
aF2.0919346809387207
aF2.0594377517700195
aF2.5186681747436523
aI9999
aI9999
aI9999
aaI-1
aa(lp1511
(lp1512
I9999
aF3.504049301147461
aF2.7708804607391357
aF0.24103718996047974
aF3.3683385848999023
aI9999
aI9999
aI9999
aaI1
aa(lp1513
(lp1514
I9999
aF3.4698500633239746
aF2.7288713455200195
aF2.6867356300354004
aF3.286221981048584
aI9999
aI9999
aI9999
aaI1
aa(lp1515
(lp1516
I9999
aF3.6942005157470703
aF2.89385724067688
aF2.8405022621154785
aF3.4616103172302246
aI9999
aI9999
aI9999
aaI1
aa(lp1517
(lp1518
I9999
aF4.868139266967773
aF3.7708072662353516
aF3.6697206497192383
aF4.4269890785217285
aI9999
aI9999
aI9999
aaI1
aa(lp1519
(lp1520
I9999
aI9999
aF4.819977283477783
aF0.24103721976280212
aF0.24103723466396332
aI9999
aI9999
aI9999
aaI-1
aa(lp1521
(lp1522
I9999
aI9999
aF4.909021854400635
aF4.759389877319336
aF5.716188430786133
aI9999
aI9999
aI9999
aaI-1
aa(lp1523
(lp1524
I9999
aI9999
aF5.192933559417725
aF5.021420955657959
aI9999
aI9999
aI9999
aI9999
aaI-1
aa(lp1525
(lp1526
I9999
aI9999
aF5.491940975189209
aF5.284265995025635
aI9999
aI9999
aI9999
aI9999
aaI-1
aa(lp1527
(lp1528
I9999
aI9999
aF5.895471096038818
aF5.6503190994262695
aI9999
aF0.3004944920539856
aF0.2609018385410309
aI9999
aaI-1
aa(lp1529
(lp1530
I9999
aI9999
aI9999
aI9999
aI9999
aF0.300494521856308
aF0.2609018087387085
aF0.23500007390975952
aaI-1
aa(lp1531
(lp1532
I9999
aI9999
aI9999
aI9999
aI9999
aI9999
aI9999
aI9999
aaI-1
aa(lp1533
(lp1534
I9999
aI9999
aI9999
aI9999
aI9999
aI9999
aI9999
aI9999
aaI-1
aa(lp1535
(lp1536
I9999
aI9999
aI9999
aI9999
aI9999
aI9999
aI9999
aI9999
aaI-1
aa(lp1537
(lp1538
I9999
aF0.2609018385410309
aF0.300494521856308
aF0.24103720486164093
aF0.24103720486164093
aI9999
aI9999
aI9999
aaI-1
aa(lp1539
(lp1540
F5.224259376525879
aF4.495386123657227
aF4.773935317993164
aI9999
aI9999
aI9999
aI9999
aI9999
aaI-1
aa(lp1541
(lp1542
F3.6183369159698486
aF3.498445510864258
aI9999
aI9999
aI9999
aI9999
aF0.2609017789363861
aF0.23500004410743713
aaI1
aa(lp1543
(lp1544
F5.955606937408447
aF4.1239728927612305
aF3.7163522243499756
aI9999
aI9999
aI9999
aI9999
aI9999
aaI1
aa(lp1545
(lp1546
I9999
aI9999
aF5.834153175354004
aF4.092436790466309
aF3.7181217670440674
aI9999
aI9999
aI9999
aaI1
aa(lp1547
(lp1548
I9999
aI9999
aF5.075869560241699
aF3.712543249130249
aF3.467317819595337
aI9999
aI9999
aI9999
aaI1
aa(lp1549
(lp1550
I9999
aI9999
aF4.6464643478393555
aF3.377370834350586
aF3.140962600708008
aI9999
aI9999
aI9999
aaI1
aa(lp1551
(lp1552
I9999
aI9999
aF4.407357215881348
aF3.1929259300231934
aF2.962773084640503
aF3.3890581130981445
aI9999
aI9999
aaI1
aa(lp1553
(lp1554
I9999
aF0.2609018385410309
aF0.3004944920539856
aF0.24103718996047974
aF2.8482744693756104
aF3.245586633682251
aI9999
aI9999
aaI1
aa(lp1555
(lp1556
F0.23500007390975952
aF0.2609018385410309
aF0.300494521856308
aF0.24103720486164093
aF2.752833604812622
aF3.1330485343933105
aF4.718321800231934
aI9999
aaI1
aa(lp1557
(lp1558
I9999
aF0.2609018385410309
aF0.3004944920539856
aF0.24103720486164093
aF2.712170124053955
aF3.0771913528442383
aF4.609688758850098
aI9999
aaI1
aa(lp1559
(lp1560
I9999
aI9999
aF0.300494521856308
aF0.24103720486164093
aF2.713226318359375
aF3.0704333782196045
aF4.579447269439697
aI9999
aaI1
aa(lp1561
(lp1562
I9999
aI9999
aF0.3004944920539856
aF0.24103720486164093
aF2.757284164428711
aF3.111238956451416
aF4.617696285247803
aI9999
aaI1
aa(lp1563
(lp1564
I9999
aI9999
aF4.367909908294678
aF3.092146396636963
aF2.8259127140045166
aF3.1814918518066406
aF4.704212188720703
aF0.23500008881092072
aaI1
aa(lp1565
(lp1566
I9999
aI9999
aF4.55173921585083
aF3.214747667312622
aF2.9335193634033203
aF3.297513008117676
aF4.863199234008789
aI9999
aaI1
aa(lp1567
(lp1568
I9999
aI9999
aF4.795865058898926
aF3.37516188621521
aF3.0728819370269775
aF3.4461121559143066
aF5.062780857086182
aI9999
aaI1
aa(lp1569
(lp1570
I9999
aI9999
aF5.012007236480713
aF3.519087791442871
aF3.199159860610962
aF3.582296133041382
aF5.249757766723633
aI9999
aaI1
aa(lp1571
(lp1572
I9999
aI9999
aF5.2085747718811035
aF3.646613359451294
aF3.309033155441284
aF3.6984474658966064
aF5.403508186340332
aI9999
aaI1
aa(lp1573
(lp1574
I9999
aI9999
aF5.391410827636719
aF3.768254280090332
aF3.4157536029815674
aF3.8135874271392822
aF5.561882019042969
aI9999
aaI1
aa(lp1575
(lp1576
I9999
aI9999
aF5.636660099029541
aF3.9283809661865234
aF3.5544495582580566
aF3.9611737728118896
aF5.75996208190918
aI9999
aaI1
aa(lp1577
(lp1578
I9999
aI9999
aF5.771350383758545
aF4.019232273101807
aF3.634932518005371
aF4.048934459686279
aF5.883029460906982
aI9999
aaI-1
aa(lp1579
(lp1580
I9999
aI9999
aF5.804497241973877
aF4.039088249206543
aF3.6510541439056396
aF4.064834117889404
aF5.9012980461120605
aI9999
aaI-1
aa(lp1581
(lp1582
I9999
aI9999
aF5.8694539070129395
aF4.084972858428955
aF3.6929194927215576
aF4.111880302429199
aF5.970622539520264
aI9999
aaI-1
aa(lp1583
(lp1584
I9999
aI9999
aI9999
aI9999
aF4.423652648925781
aF3.772326946258545
aF3.973496437072754
aF5.306432723999023
aaI-1
aa(lp1585
(lp1586
I9999
aI9999
aI9999
aI9999
aF4.843111991882324
aF3.834057092666626
aF3.7942795753479004
aF4.669825553894043
aaI-1
aa(lp1587
(lp1588
I9999
aI9999
aI9999
aI9999
aF4.711008071899414
aF3.755030870437622
aF3.73612904548645
aF4.628683090209961
aaI-1
aa(lp1589
(lp1590
I9999
aI9999
aI9999
aF4.306046962738037
aF3.6444196701049805
aF3.8130087852478027
aF5.044492244720459
aI9999
aaI-1
aa(lp1591
(lp1592
I9999
aF4.237758159637451
aF3.637629747390747
aF3.854443311691284
aF5.190944671630859
aI9999
aI9999
aI9999
aaI-1
aa(lp1593
(lp1594
F4.541045188903809
aF5.09821891784668
aI9999
aI9999
aI9999
aI9999
aI9999
aI9999
aaI-1
aa(lp1595
(lp1596
F4.89186954498291
aF5.52366828918457
aI9999
aI9999
aI9999
aI9999
aI9999
aI9999
aaI-1
aa(lp1597
(lp1598
F5.0649871826171875
aF5.750667572021484
aI9999
aI9999
aI9999
aI9999
aI9999
aI9999
aaI-1
aa(lp1599
(lp1600
I9999
aF5.172528266906738
aF5.4148054122924805
aI9999
aI9999
aI9999
aI9999
aI9999
aaI-1
aa(lp1601
(lp1602
I9999
aF5.237746238708496
aF5.10463809967041
aI9999
aI9999
aI9999
aI9999
aI9999
aaI-1
aa(lp1603
(lp1604
I9999
aI9999
aF5.316720008850098
aF4.775035858154297
aF5.282012462615967
aI9999
aI9999
aI9999
aaI-1
aa(lp1605
(lp1606
I9999
aI9999
aF5.36699914932251
aF4.480871200561523
aF4.632627010345459
aI9999
aI9999
aI9999
aaI-1
aa(lp1607
(lp1608
I9999
aI9999
aF5.0016374588012695
aF4.180525302886963
aF4.326304912567139
aF5.638613700866699
aI9999
aI9999
aaI-1
aa(lp1609
(lp1610
I9999
aI9999
aF4.836912155151367
aF4.040608882904053
aF4.179512023925781
aF5.443786144256592
aI9999
aI9999
aaI-1
aa(lp1611
(lp1612
I9999
aF0.2609018385410309
aF0.30049455165863037
aF0.24103723466396332
aF0.24103721976280212
aF4.822757244110107
aI9999
aI9999
aaI-1
aa(lp1613
(lp1614
I9999
aI9999
aF3.651141405105591
aF3.0433013439178467
aF3.141911268234253
aF4.081820964813232
aI9999
aI9999
aaI1
aa(lp1615
(lp1616
I9999
aI9999
aF3.965174674987793
aF3.3048746585845947
aF3.4118008613586426
aF4.432170391082764
aI9999
aI9999
aaI1
aa(lp1617
(lp1618
I9999
aI9999
aF4.143108367919922
aF3.444512367248535
aF3.5482945442199707
aF4.59620475769043
aI9999
aI9999
aaI1
aa(lp1619
(lp1620
I9999
aI9999
aF4.373133182525635
aF3.6303818225860596
aF3.7350399494171143
aF4.829958915710449
aI9999
aI9999
aaI-1
aa(lp1621
(lp1622
I9999
aI9999
aF4.669146537780762
aF3.8663265705108643
aF3.9692223072052
aF5.118131160736084
aI9999
aI9999
aaI-1
aa(lp1623
(lp1624
I9999
aI9999
aF4.884575843811035
aF4.036642074584961
aF4.137051582336426
aF5.322605609893799
aI9999
aI9999
aaI-1
aa(lp1625
(lp1626
I9999
aI9999
aF5.045487880706787
aF4.163193225860596
aF4.2611870765686035
aF5.472904205322266
aI9999
aI9999
aaI-1
aa(lp1627
(lp1628
I9999
aI9999
aF5.306227207183838
aF4.367346286773682
aF4.460687637329102
aF5.713244915008545
aI9999
aI9999
aaI-1
aa(lp1629
(lp1630
I9999
aI9999
aF5.484035015106201
aF4.507572174072266
aF4.598669052124023
aF5.881211280822754
aI9999
aI9999
aaI-1
aa(lp1631
(lp1632
I9999
aI9999
aF5.654451370239258
aF4.633975505828857
aF4.715995788574219
aI9999
aI9999
aI9999
aaI-1
aa(lp1633
(lp1634
I9999
aI9999
aI9999
aI9999
aI9999
aI9999
aI9999
aI9999
aaI-1
aa(lp1635
(lp1636
I9999
aI9999
aI9999
aI9999
aI9999
aI9999
aI9999
aI9999
aaI-1
aa(lp1637
(lp1638
I9999
aI9999
aF5.995893478393555
aF4.8907318115234375
aF4.957887172698975
aI9999
aI9999
aI9999
aaI-1
aa(lp1639
(lp1640
I9999
aI9999
aI9999
aF5.0107035636901855
aF5.083146572113037
aI9999
aI9999
aI9999
aaI-1
aa(lp1641
(lp1642
I9999
aI9999
aI9999
aF5.069009304046631
aF5.134799480438232
aI9999
aI9999
aI9999
aaI-1
aa(lp1643
(lp1644
I9999
aI9999
aI9999
aF5.122865676879883
aF5.1846137046813965
aI9999
aI9999
aI9999
aaI-1
aa(lp1645
(lp1646
I9999
aI9999
aI9999
aF5.189131736755371
aF5.248816013336182
aI9999
aI9999
aI9999
aaI-1
aa(lp1647
(lp1648
I9999
aI9999
aI9999
aF5.221002101898193
aF5.282824993133545
aI9999
aI9999
aI9999
aaI-1
aa(lp1649
(lp1650
I9999
aF0.2609018385410309
aF0.30049455165863037
aF4.658040523529053
aF4.726351261138916
aF0.30049455165863037
aI9999
aI9999
aaI-1
aa(lp1651
(lp1652
I9999
aI9999
aF4.5393218994140625
aF3.689819574356079
aF3.7298097610473633
aF4.713539123535156
aI9999
aI9999
aaI-1
aa(lp1653
(lp1654
I9999
aI9999
aF4.511438369750977
aF3.672168016433716
aF3.716141939163208
aF4.703023433685303
aI9999
aI9999
aaI-1
aa(lp1655
(lp1656
I9999
aI9999
aF4.40086030960083
aF3.5809881687164307
aF3.6228933334350586
aF4.583428859710693
aI9999
aI9999
aaI-1
aa(lp1657
(lp1658
I9999
aI9999
aF4.32314920425415
aF3.5182104110717773
aF3.559760570526123
aF4.504172325134277
aI9999
aI9999
aaI-1
aa(lp1659
(lp1660
I9999
aI9999
aF4.26986837387085
aF3.4880495071411133
aF3.5403170585632324
aF4.4976372718811035
aI9999
aI9999
aaI-1
aa(lp1661
(lp1662
I9999
aI9999
aF4.294911861419678
aF3.502227783203125
aF3.5494399070739746
aF4.500627040863037
aI9999
aI9999
aaI-1
aa(lp1663
(lp1664
I9999
aF0.2609018385410309
aF0.3004944920539856
aF2.9221367835998535
aF2.9670326709747314
aF0.300494521856308
aI9999
aI9999
aaI1
aa(lp1665
(lp1666
I9999
aF4.306628704071045
aF2.472754716873169
aF2.0137078762054443
aF2.038625955581665
aF2.5813205242156982
aF4.81653356552124
aI9999
aaI-1
aa(lp1667
(lp1668
I9999
aF4.399230003356934
aF2.534945249557495
aF2.0678062438964844
aF2.0962846279144287
aF2.6590354442596436
aF4.982419013977051
aI9999
aaI-1
aa(lp1669
(lp1670
I9999
aF4.151998043060303
aF2.3948142528533936
aF1.9543935060501099
aF1.9820607900619507
aF2.515373468399048
aF4.7186970710754395
aI9999
aaI-1
aa(lp1671
(lp1672
I9999
aF3.956744432449341
aF2.287224769592285
aF1.8685287237167358
aF1.8966106176376343
aF2.4095993041992188
aF4.532230377197266
aI9999
aaI-1
aa(lp1673
(lp1674
I9999
aF3.813662528991699
aF2.2061848640441895
aF1.8029687404632568
aF1.8306084871292114
aF2.3266355991363525
aF4.380190849304199
aI9999
aaI-1
aa(lp1675
(lp1676
I9999
aF3.6926941871643066
aF2.1393067836761475
aF1.7495145797729492
aF1.7773478031158447
aF2.260606527328491
aF4.263395309448242
aI9999
aaI-1
aa(lp1677
(lp1678
I9999
aF3.5766990184783936
aF2.073543071746826
aF1.6962904930114746
aF1.7237474918365479
aF2.193206310272217
aF4.1397857666015625
aI9999
aaI-1
aa(lp1679
(lp1680
I9999
aF5.169157981872559
aF2.978776693344116
aF2.429917812347412
aF2.4634411334991455
aF3.124850034713745
aF5.855668067932129
aI9999
aaI1
aa(lp1681
(lp1682
I9999
aI9999
aF3.990954875946045
aF3.2815046310424805
aF3.3488171100616455
aF4.284443378448486
aI9999
aI9999
aaI1
aa(lp1683
(lp1684
I9999
aI9999
aF3.9632418155670166
aF3.2495152950286865
aF3.3083322048187256
aF4.21962308883667
aI9999
aI9999
aaI1
aa(lp1685
(lp1686
I9999
aI9999
aF4.020223617553711
aF3.296689987182617
aF3.3567469120025635
aF4.282013893127441
aI9999
aI9999
aaI1
aa(lp1687
(lp1688
I9999
aI9999
aF4.030753135681152
aF3.3060076236724854
aF3.3668150901794434
aF4.295820236206055
aI9999
aI9999
aaI1
aa(lp1689
(lp1690
I9999
aI9999
aF4.065765380859375
aF3.3361380100250244
aF3.398703098297119
aF4.338504314422607
aI9999
aI9999
aaI1
aa(lp1691
(lp1692
I9999
aI9999
aF4.078217029571533
aF3.3480069637298584
aF3.4122023582458496
aF4.358075141906738
aI9999
aI9999
aaI1
aa(lp1693
(lp1694
I9999
aI9999
aF4.095526218414307
aF3.3661184310913086
aF3.433995246887207
aF4.3914642333984375
aI9999
aI9999
aaI1
aa(lp1695
(lp1696
I9999
aF5.769591808319092
aF3.7874765396118164
aF3.305875778198242
aF3.5574159622192383
aF4.899710178375244
aI9999
aI9999
aaI1
aa(lp1697
(lp1698
I9999
aF5.831024646759033
aF3.81193470954895
aF3.31933856010437
aF3.5639703273773193
aF4.892631530761719
aI9999
aI9999
aaI1
aa(lp1699
(lp1700
I9999
aF5.860042095184326
aF3.8303232192993164
aF3.3350629806518555
aF3.580564260482788
aF4.914827346801758
aI9999
aI9999
aaI1
aa(lp1701
(lp1702
I9999
aF5.8094072341918945
aF3.8054275512695312
aF3.3174638748168945
aF3.5657718181610107
aF4.902843952178955
aI9999
aI9999
aaI1
aa(lp1703
(lp1704
I9999
aF5.730271816253662
aF3.763868570327759
aF3.2863729000091553
aF3.5375449657440186
aF4.8746209144592285
aI9999
aI9999
aaI1
aa(lp1705
(lp1706
I9999
aF5.644889831542969
aF3.7101733684539795
aF3.2406861782073975
aF3.4895780086517334
aF4.811001777648926
aI9999
aI9999
aaI1
aa(lp1707
(lp1708
I9999
aF5.594436168670654
aF3.676558494567871
aF3.211097478866577
aF3.457486629486084
aF4.766287326812744
aI9999
aI9999
aaI1
aa(lp1709
(lp1710
I9999
aF5.487794399261475
aF3.6086466312408447
aF3.1528728008270264
aF3.3958983421325684
aF4.683645725250244
aI9999
aI9999
aaI1
aa(lp1711
(lp1712
I9999
aF5.40668249130249
aF3.553039312362671
aF3.1031503677368164
aF3.3411903381347656
aF4.605831623077393
aI9999
aI9999
aaI1
aa(lp1713
(lp1714
I9999
aF5.362462520599365
aF3.5221803188323975
aF3.0752973556518555
aF3.310288429260254
aF4.561368465423584
aI9999
aI9999
aaI1
aa(lp1715
(lp1716
I9999
aF5.334228515625
aF3.504718780517578
aF3.060594320297241
aF3.295011043548584
aF4.541440486907959
aI9999
aI9999
aaI1
aa(lp1717
(lp1718
I9999
aF5.333385944366455
aF3.503026247024536
aF3.0585455894470215
aF3.2922282218933105
aF4.5364251136779785
aI9999
aI9999
aaI1
aa(lp1719
(lp1720
I9999
aF5.299030780792236
aF3.4763569831848145
aF3.0332090854644775
aF3.262883424758911
aF4.491761207580566
aI9999
aI9999
aaI1
aa(lp1721
(lp1722
I9999
aF5.252989292144775
aF3.443394184112549
aF3.0030722618103027
aF3.229077100753784
aF4.442396640777588
aI9999
aI9999
aaI1
aa(lp1723
(lp1724
I9999
aF5.2319793701171875
aF3.4244587421417236
aF2.983989953994751
aF3.2059733867645264
aF4.405361175537109
aI9999
aI9999
aaI1
aa(lp1725
(lp1726
I9999
aF5.294666290283203
aF3.455252170562744
aF3.005758762359619
aF3.2242848873138428
aF4.420263290405273
aI9999
aI9999
aaI1
aa(lp1727
(lp1728
I9999
aF5.384284019470215
aF3.4944112300872803
aF3.030362367630005
aF3.241262912750244
aF4.424695014953613
aI9999
aI9999
aaI1
aa(lp1729
(lp1730
I9999
aF5.445589065551758
aF3.5275068283081055
aF3.055806875228882
aF3.265254497528076
aF4.451035976409912
aI9999
aI9999
aaI1
aa(lp1731
(lp1732
I9999
aF5.5213727951049805
aF3.5640947818756104
aF3.0814573764801025
aF3.2867066860198975
aF4.468504428863525
aI9999
aI9999
aaI1
aa(lp1733
(lp1734
I9999
aF5.547386169433594
aF3.5786564350128174
aF3.0929720401763916
aF3.2979319095611572
aF4.48168420791626
aI9999
aI9999
aaI1
aa(lp1735
(lp1736
I9999
aF5.6339569091796875
aF3.628732681274414
aF3.1334781646728516
aF3.3384006023406982
aF4.5313310623168945
aI9999
aI9999
aaI1
aa(lp1737
(lp1738
I9999
aF5.696203708648682
aF3.665074586868286
aF3.1630618572235107
aF3.3681585788726807
aF4.568271160125732
aI9999
aI9999
aaI1
aa(lp1739
(lp1740
I9999
aF5.719689846038818
aF3.676297187805176
aF3.170886516571045
aF3.374671697616577
aF4.573546886444092
aI9999
aI9999
aaI1
aa(lp1741
(lp1742
I9999
aI9999
aF5.541495323181152
aF3.653048515319824
aF3.196247100830078
aF3.4472713470458984
aF4.7640700340271
aI9999
aaI1
aa(lp1743
(lp1744
I9999
aI9999
aI9999
aF3.812952995300293
aF3.16746187210083
aF3.2606375217437744
aF4.219695568084717
aI9999
aaI1
aa(lp1745
(lp1746
I9999
aI9999
aI9999
aF3.659780979156494
aF3.053081750869751
aF3.154304027557373
aF4.101926803588867
aI9999
aaI1
aa(lp1747
(lp1748
I9999
aI9999
aF5.949854850769043
aF3.586343765258789
aF2.990180730819702
aF3.087860345840454
aF4.012979030609131
aI9999
aaI1
aa(lp1749
(lp1750
I9999
aF5.522944450378418
aF3.4356658458709717
aF2.911423921585083
aF3.049495220184326
aF4.04061222076416
aI9999
aI9999
aaI1
aa(lp1751
(lp1752
I9999
aF4.69791316986084
aF3.261958122253418
aF2.9445550441741943
aF3.27376651763916
aF4.7423095703125
aI9999
aI9999
aaI1
aa(lp1753
(lp1754
I9999
aF4.970244884490967
aF3.4408090114593506
aF3.1002371311187744
aF3.440444231033325
aF4.968873500823975
aI9999
aI9999
aaI1
aa(lp1755
(lp1756
I9999
aF5.152393817901611
aF3.5699262619018555
aF3.2182729244232178
aF3.573320150375366
aF5.165153980255127
aI9999
aI9999
aaI1
aa(lp1757
(lp1758
I9999
aF5.266994476318359
aF3.6502788066864014
aF3.291245460510254
aF3.654937744140625
aF5.284510612487793
aI9999
aI9999
aaI1
aa(lp1759
(lp1760
I9999
aF5.345805644989014
aF3.7072343826293945
aF3.343916416168213
aF3.714895009994507
aF5.374607086181641
aI9999
aI9999
aaI1
aa(lp1761
(lp1762
I9999
aF5.40627908706665
aF3.7519800662994385
aF3.3858633041381836
aF3.76326322555542
aF5.448700428009033
aI9999
aI9999
aaI1
aa(lp1763
(lp1764
I9999
aF5.523433685302734
aF3.841163158416748
aF3.470810890197754
aF3.8626718521118164
aF5.604302883148193
aI9999
aI9999
aaI-1
aa(lp1765
(lp1766
I9999
aF0.2609018087387085
aF0.30049455165863037
aF0.24103723466396332
aF0.24103721976280212
aF4.946960926055908
aI9999
aI9999
aaI1
aa(lp1767
(lp1768
F3.2493135929107666
aF2.56673264503479
aF2.535784959793091
aF3.1144790649414062
aF5.426639080047607
aI9999
aI9999
aI9999
aaI1
aa(lp1769
(lp1770
F4.202193737030029
aF3.2818238735198975
aF3.2138309478759766
aF3.9057164192199707
aI9999
aI9999
aI9999
aF0.23500007390975952
aaI1
aa(lp1771
(lp1772
F3.9107367992401123
aF4.456299304962158
aI9999
aI9999
aI9999
aI9999
aI9999
aI9999
aaI-1
aa(lp1773
(lp1774
F3.9279568195343018
aF4.508606910705566
aI9999
aI9999
aI9999
aI9999
aI9999
aI9999
aaI-1
aa(lp1775
(lp1776
F3.597465753555298
aF4.195344924926758
aI9999
aI9999
aI9999
aI9999
aI9999
aI9999
aaI-1
aa(lp1777
(lp1778
F3.2531352043151855
aF3.8420135974884033
aI9999
aI9999
aI9999
aI9999
aI9999
aI9999
aaI-1
aa(lp1779
(lp1780
F2.9166529178619385
aF3.5132837295532227
aF5.879234313964844
aI9999
aI9999
aI9999
aI9999
aI9999
aaI1
aa(lp1781
(lp1782
F2.832136631011963
aF3.417132616043091
aF5.737499237060547
aI9999
aI9999
aI9999
aI9999
aI9999
aaI1
aa(lp1783
(lp1784
F3.296276569366455
aF5.667586326599121
aI9999
aI9999
aI9999
aI9999
aI9999
aI9999
aaI1
aa(lp1785
(lp1786
F3.6697254180908203
aI9999
aI9999
aI9999
aI9999
aI9999
aI9999
aI9999
aaI1
aa(lp1787
(lp1788
F3.8045637607574463
aI9999
aI9999
aI9999
aI9999
aI9999
aI9999
aI9999
aaI1
aa(lp1789
(lp1790
F2.8749477863311768
aF3.7605419158935547
aI9999
aI9999
aI9999
aI9999
aI9999
aI9999
aaI1
aa(lp1791
(lp1792
F2.7830238342285156
aF2.626894950866699
aF3.0608086585998535
aF4.805385112762451
aI9999
aI9999
aI9999
aI9999
aaI1
aa(lp1793
(lp1794
I9999
aF3.598330497741699
aF2.5700998306274414
aF2.362468957901001
aF2.675738573074341
aF3.9964280128479004
aI9999
aI9999
aaI1
aa(lp1795
(lp1796
I9999
aF3.1540212631225586
aF2.059915065765381
aF1.7927464246749878
aF1.923890233039856
aF2.6391441822052
aI9999
aI9999
aaI1
aa(lp1797
(lp1798
I9999
aF2.345079183578491
aF1.511452555656433
aF1.305661678314209
aF1.3915339708328247
aF1.889731526374817
aF4.25505256652832
aI9999
aaI-1
aa(lp1799
(lp1800
I9999
aF3.069500684738159
aF1.9650849103927612
aF1.6912130117416382
aF1.7962883710861206
aF2.427400588989258
aF5.384737491607666
aI9999
aaI-1
aa(lp1801
(lp1802
I9999
aF5.5920915603637695
aF3.5657730102539062
aF3.06209135055542
aF3.2458391189575195
aF4.373692989349365
aI9999
aI9999
aaI-1
aa(lp1803
(lp1804
I9999
aI9999
aF4.746063709259033
aF4.065378665924072
aF4.2994585037231445
aF5.774523735046387
aI9999
aI9999
aaI-1
aa(lp1805
(lp1806
I9999
aI9999
aF5.035667419433594
aF4.260416507720947
aF4.456096649169922
aF5.892707824707031
aI9999
aI9999
aaI-1
aa(lp1807
(lp1808
I9999
aI9999
aF5.294771671295166
aF4.455188751220703
aF4.637423992156982
aI9999
aI9999
aI9999
aaI-1
aa(lp1809
(lp1810
I9999
aI9999
aF5.671441555023193
aF4.732846260070801
aF4.891172885894775
aI9999
aI9999
aI9999
aaI-1
aa(lp1811
(lp1812
I9999
aI9999
aF5.985980033874512
aF4.965896129608154
aF5.106071472167969
aI9999
aI9999
aI9999
aaI-1
aa(lp1813
(lp1814
I9999
aI9999
aI9999
aF5.455101013183594
aF5.1641459465026855
aI9999
aI9999
aI9999
aaI-1
aa(lp1815
(lp1816
I9999
aI9999
aI9999
aI9999
aF5.512205600738525
aF5.545152187347412
aI9999
aI9999
aaI-1
aa(lp1817
(lp1818
I9999
aI9999
aI9999
aI9999
aF5.792841911315918
aF5.600089073181152
aI9999
aI9999
aaI-1
aa(lp1819
(lp1820
I9999
aI9999
aI9999
aI9999
aF5.958347320556641
aF5.710377216339111
aI9999
aI9999
aaI-1
aa(lp1821
(lp1822
I9999
aI9999
aI9999
aI9999
aI9999
aF5.855345726013184
aI9999
aI9999
aaI-1
aa(lp1823
(lp1824
I9999
aI9999
aI9999
aI9999
aI9999
aI9999
aI9999
aI9999
aaI-1
aa(lp1825
(lp1826
I9999
aI9999
aI9999
aI9999
aI9999
aI9999
aI9999
aI9999
aaI-1
aa(lp1827
(lp1828
I9999
aI9999
aI9999
aI9999
aI9999
aI9999
aI9999
aI9999
aaI-1
aa(lp1829
(lp1830
I9999
aI9999
aI9999
aI9999
aI9999
aF5.857293128967285
aI9999
aI9999
aaI-1
aa(lp1831
(lp1832
I9999
aI9999
aI9999
aI9999
aF5.4288740158081055
aF5.094333171844482
aF5.8978729248046875
aI9999
aaI-1
aa(lp1833
(lp1834
I9999
aI9999
aI9999
aI9999
aF5.5346269607543945
aF5.180785655975342
aF5.981966018676758
aI9999
aaI-1
aa(lp1835
(lp1836
I9999
aI9999
aI9999
aI9999
aF5.519008636474609
aF5.158160209655762
aF5.945883274078369
aI9999
aaI-1
aa(lp1837
(lp1838
I9999
aI9999
aF0.300494521856308
aF0.24103721976280212
aF0.24103721976280212
aF0.300494521856308
aF0.2609018385410309
aI9999
aaI-1
aa(lp1839
(lp1840
I9999
aI9999
aI9999
aF0.24103723466396332
aF0.24103723466396332
aF0.30049455165863037
aF0.2609018087387085
aF0.23500005900859833
aaI1
aa(lp1841
(lp1842
I9999
aI9999
aI9999
aF2.615492582321167
aF1.9049960374832153
aF1.7740955352783203
aF2.037201166152954
aF3.1157917976379395
aaI-1
aa(lp1843
(lp1844
I9999
aI9999
aI9999
aF2.7090847492218018
aF1.9740544557571411
aF1.838971734046936
aF2.1123905181884766
aF3.232649803161621
aaI-1
aa(lp1845
(lp1846
I9999
aI9999
aF5.845518589019775
aF2.512755870819092
aF1.8310878276824951
aF1.7058476209640503
aF1.959546685218811
aF2.9989452362060547
aaI-1
aa(lp1847
(lp1848
F0.23500004410743713
aI9999
aI9999
aF3.3906381130218506
aF2.474074125289917
aF2.3069214820861816
aF2.652557849884033
aF4.066411972045898
aaI-1
aa(lp1849
(lp1850
I9999
aI9999
aI9999
aF4.749288558959961
aF3.4661247730255127
aF3.232374668121338
aF3.7171947956085205
aF5.699940204620361
aaI1
aa(lp1851
(lp1852
I9999
aI9999
aF3.9943854808807373
aF3.2391085624694824
aF3.2678005695343018
aF4.119368076324463
aI9999
aI9999
aaI1
aa(lp1853
(lp1854
I9999
aF4.80406379699707
aF3.5377261638641357
aF3.319525957107544
aF3.842874765396118
aF5.962776184082031
aI9999
aI9999
aaI1
aa(lp1855
(lp1856
I9999
aF5.076089382171631
aF3.7254483699798584
aF3.4875481128692627
aF4.027223110198975
aI9999
aI9999
aI9999
aaI1
aa(lp1857
(lp1858
I9999
aF5.292206287384033
aF3.8836495876312256
aF3.6353824138641357
aF4.197603702545166
aI9999
aI9999
aI9999
aaI-1
aa(lp1859
(lp1860
I9999
aF5.371552467346191
aF3.953540086746216
aF3.708341598510742
aF4.2912917137146
aI9999
aI9999
aI9999
aaI-1
aa(lp1861
(lp1862
I9999
aF5.369415760040283
aF3.9632256031036377
aF3.724752426147461
aF4.319521903991699
aI9999
aI9999
aI9999
aaI-1
aa(lp1863
(lp1864
I9999
aF5.376056671142578
aF3.9824764728546143
aF3.7522571086883545
aF4.363377571105957
aI9999
aI9999
aI9999
aaI-1
aa(lp1865
(lp1866
I9999
aF5.335811138153076
aF3.968071222305298
aF3.7488839626312256
aF4.372524738311768
aI9999
aI9999
aI9999
aaI-1
aa(lp1867
(lp1868
I9999
aF5.228881359100342
aF3.9195854663848877
aF3.7239580154418945
aF0.24103720486164093
aF0.300494521856308
aF0.2609018385410309
aI9999
aaI-1
aa(lp1869
(lp1870
F0.23500007390975952
aF5.193798065185547
aF3.8981211185455322
aF3.706843137741089
aF4.354821681976318
aI9999
aI9999
aI9999
aaI-1
aa(lp1871
(lp1872
I9999
aF5.2131757736206055
aF3.925462484359741
aF3.7415771484375
aF4.407147407531738
aI9999
aI9999
aI9999
aaI-1
aa(lp1873
(lp1874
I9999
aF5.132714748382568
aF3.8867483139038086
aF3.719785451889038
aF4.401633262634277
aI9999
aI9999
aI9999
aaI-1
aa(lp1875
(lp1876
I9999
aF5.068439960479736
aF3.8542873859405518
aF3.700044870376587
aF4.393551349639893
aF0.3004944920539856
aF0.26090186834335327
aI9999
aaI-1
aa(lp1877
(lp1878
I9999
aF4.9846625328063965
aF3.794542074203491
aF3.645473003387451
aF4.332523345947266
aI9999
aI9999
aI9999
aaI-1
aa(lp1879
(lp1880
I9999
aF4.900228023529053
aF3.759474992752075
aF3.632584810256958
aF0.24103720486164093
aF0.300494521856308
aF0.2609018385410309
aI9999
aaI-1
aa(lp1881
(lp1882
I9999
aF4.856154441833496
aF3.7342162132263184
aF3.614330768585205
aF0.24103720486164093
aF0.300494521856308
aF0.2609018385410309
aI9999
aaI-1
aa(lp1883
(lp1884
F0.23500008881092072
aF4.854569911956787
aF3.727263927459717
aF3.603482246398926
aF4.313765525817871
aI9999
aI9999
aI9999
aaI-1
aa(lp1885
(lp1886
I9999
aF4.8652424812316895
aF3.7408792972564697
aF3.6205456256866455
aF4.339608669281006
aI9999
aI9999
aI9999
aaI-1
aa(lp1887
(lp1888
I9999
aF4.840106010437012
aF3.746015787124634
aF3.6433396339416504
aF0.24103720486164093
aF0.300494521856308
aF0.2609018385410309
aI9999
aaI-1
aa(lp1889
(lp1890
I9999
aF4.8501787185668945
aF3.746901512145996
aF3.6391584873199463
aF4.3798298835754395
aI9999
aI9999
aI9999
aaI-1
aa(lp1891
(lp1892
I9999
aF4.820450305938721
aF3.7297990322113037
aF3.6268327236175537
aF4.371038913726807
aI9999
aI9999
aI9999
aaI-1
aa(lp1893
(lp1894
I9999
aF4.776524066925049
aF3.7046947479248047
aF3.608947992324829
aF4.358738899230957
aI9999
aI9999
aI9999
aaI-1
aa(lp1895
(lp1896
I9999
aF4.732895374298096
aF3.673931837081909
aF3.581247329711914
aF4.328509330749512
aI9999
aI9999
aI9999
aaI-1
aa(lp1897
(lp1898
I9999
aF4.712022304534912
aF3.661921739578247
aF3.572638988494873
aF4.322525501251221
aI9999
aI9999
aI9999
aaI-1
aa(lp1899
(lp1900
I9999
aF4.6436686515808105
aF3.6125857830047607
aF3.527310371398926
aF4.271695137023926
aI9999
aI9999
aI9999
aaI-1
aa(lp1901
(lp1902
I9999
aF4.581338882446289
aF3.5661842823028564
aF3.4835548400878906
aF4.22092866897583
aI9999
aI9999
aI9999
aaI1
aa(lp1903
(lp1904
I9999
aF4.511197566986084
aF3.5121712684631348
aF3.4312288761138916
aF4.158151149749756
aI9999
aI9999
aI9999
aaI1
aa(lp1905
(lp1906
I9999
aF4.502107620239258
aF3.507866859436035
aF3.429086446762085
aF4.158518314361572
aI9999
aI9999
aI9999
aaI1
aa(lp1907
(lp1908
I9999
aF4.467595100402832
aF3.482466697692871
aF3.405367851257324
aF4.131352424621582
aI9999
aI9999
aI9999
aaI1
aa(lp1909
(lp1910
I9999
aF4.4297308921813965
aF3.4539527893066406
aF3.3782315254211426
aF4.09950590133667
aI9999
aI9999
aI9999
aaI1
aa(lp1911
(lp1912
I9999
aF4.403891563415527
aF3.433553695678711
aF3.3580918312072754
aF4.074796199798584
aI9999
aI9999
aI9999
aaI1
aa(lp1913
(lp1914
I9999
aF4.378109931945801
aF3.410870313644409
aF3.333983898162842
aF4.042777061462402
aI9999
aI9999
aI9999
aaI1
aa(lp1915
(lp1916
I9999
aF4.3578715324401855
aF3.3929712772369385
aF3.3149032592773438
aF4.017364025115967
aI9999
aI9999
aI9999
aaI1
aa(lp1917
(lp1918
I9999
aF4.344374179840088
aF3.381432056427002
aF3.302863836288452
aF4.001675605773926
aI9999
aI9999
aI9999
aaI1
aa(lp1919
(lp1920
I9999
aF4.465333461761475
aF3.4942173957824707
aF3.427000045776367
aF4.172287940979004
aI9999
aI9999
aI9999
aaI1
aa(lp1921
(lp1922
I9999
aF4.822135925292969
aF3.755352020263672
aF3.669624090194702
aF4.4482269287109375
aI9999
aI9999
aI9999
aaI-1
aa(lp1923
(lp1924
I9999
aF4.882622718811035
aF3.831526279449463
aF3.765968084335327
aF4.596874713897705
aI9999
aI9999
aI9999
aaI-1
aa(lp1925
(lp1926
I9999
aF4.952611923217773
aF3.8695685863494873
aF3.7906606197357178
aF4.608554363250732
aI9999
aI9999
aI9999
aaI-1
aa(lp1927
(lp1928
I9999
aF4.998478889465332
aF3.903651237487793
aF3.8227343559265137
aF4.645647048950195
aI9999
aI9999
aI9999
aaI-1
aa(lp1929
(lp1930
I9999
aF4.997547149658203
aF3.913097381591797
aF3.83963942527771
aF4.677310466766357
aI9999
aI9999
aI9999
aaI-1
aa(lp1931
(lp1932
I9999
aF4.98383092880249
aF3.9006946086883545
aF3.826216459274292
aF4.6591362953186035
aI9999
aI9999
aI9999
aaI-1
aa(lp1933
(lp1934
I9999
aF4.9840617179870605
aF3.8941731452941895
aF3.8147878646850586
aF4.637922763824463
aF0.300494521856308
aF0.2609018385410309
aF0.23500008881092072
aaI-1
aa(lp1935
(lp1936
I9999
aF4.9700751304626465
aF3.878694772720337
aF3.796220302581787
aF4.610428333282471
aI9999
aI9999
aI9999
aaI-1
aa(lp1937
(lp1938
I9999
aF4.951258182525635
aF3.876983404159546
aF3.8043017387390137
aF0.24103718996047974
aF0.3004944920539856
aF0.2609018385410309
aI9999
aaI-1
aa(lp1939
(lp1940
I9999
aF4.9973249435424805
aF3.911919355392456
aF3.837726593017578
aF0.24103720486164093
aF0.300494521856308
aF0.2609018385410309
aI9999
aaI-1
aa(lp1941
(lp1942
I9999
aF5.044265270233154
aF3.9519295692443848
aF3.879441499710083
aF0.24103720486164093
aF0.3004944920539856
aF0.2609018385410309
aI9999
aaI-1
aa(lp1943
(lp1944
I9999
aF5.053487777709961
aF3.9626128673553467
aF3.8925437927246094
aF4.748060703277588
aI9999
aI9999
aI9999
aaI-1
aa(lp1945
(lp1946
I9999
aF5.068522930145264
aF3.962562084197998
aF3.88358211517334
aF4.7241692543029785
aI9999
aI9999
aI9999
aaI-1
aa(lp1947
(lp1948
I9999
aF5.022134780883789
aF3.9427268505096436
aF3.8765718936920166
aF0.24103718996047974
aF0.3004944920539856
aF0.2609018385410309
aI9999
aaI-1
aa(lp1949
(lp1950
F4.087133884429932
aF3.8719899654388428
aF0.3004942238330841
aF0.24103696644306183
aF0.24103696644306183
aF0.3004942238330841
aI9999
aI9999
aaI-1
aa(lp1951
(lp1952
F4.074615955352783
aF4.120131969451904
aF5.208996772766113
aI9999
aI9999
aI9999
aI9999
aI9999
aaI-1
aa(lp1953
(lp1954
F4.3026885986328125
aF4.344149112701416
aF5.481582164764404
aI9999
aI9999
aI9999
aI9999
aI9999
aaI-1
aa(lp1955
(lp1956
I9999
aF4.655496120452881
aF4.422717571258545
aF5.190154552459717
aI9999
aI9999
aI9999
aI9999
aaI-1
aa(lp1957
(lp1958
I9999
aI9999
aI9999
aF4.759039402008057
aF4.485220432281494
aF5.2173638343811035
aI9999
aI9999
aaI-1
aa(lp1959
(lp1960
I9999
aI9999
aI9999
aF4.587571144104004
aF4.362339019775391
aF5.124739646911621
aI9999
aI9999
aaI-1
aa(lp1961
(lp1962
I9999
aI9999
aF5.675367832183838
aF4.269723892211914
aF4.067140579223633
aF4.787228584289551
aI9999
aI9999
aaI-1
aa(lp1963
(lp1964
I9999
aI9999
aF5.601714134216309
aF4.206328392028809
aF4.001321315765381
aF4.70260763168335
aI9999
aI9999
aaI-1
aa(lp1965
(lp1966
I9999
aI9999
aF5.623610973358154
aF4.218457221984863
aF4.009932994842529
aF4.708890438079834
aI9999
aI9999
aaI-1
aa(lp1967
(lp1968
I9999
aI9999
aF5.6468634605407715
aF4.227677345275879
aF4.0131425857543945
aF4.7053985595703125
aI9999
aI9999
aaI-1
aa(lp1969
(lp1970
I9999
aI9999
aF5.760544300079346
aF4.298913478851318
aF4.071455001831055
aF4.761681079864502
aI9999
aI9999
aaI-1
aa(lp1971
(lp1972
I9999
aI9999
aF5.951802730560303
aF4.426734924316406
aF4.182591438293457
aF4.878868103027344
aI9999
aI9999
aaI-1
aa(lp1973
(lp1974
I9999
aI9999
aI9999
aF4.570047855377197
aF4.309288501739502
aF5.015504837036133
aI9999
aI9999
aaI-1
aa(lp1975
(lp1976
I9999
aI9999
aI9999
aF5.3716230392456055
aF4.472828388214111
aF4.613741874694824
aF5.986968040466309
aI9999
aaI-1
aa(lp1977
(lp1978
I9999
aI9999
aI9999
aI9999
aF4.681518077850342
aF4.569032669067383
aF5.530427932739258
aI9999
aaI-1
aa(lp1979
(lp1980
I9999
aI9999
aI9999
aI9999
aF4.717926025390625
aF4.607236862182617
aF5.580493927001953
aI9999
aaI-1
aa(lp1981
(lp1982
I9999
aI9999
aI9999
aI9999
aF4.793344974517822
aF4.674685001373291
aF5.653331756591797
aI9999
aaI-1
aa(lp1983
(lp1984
I9999
aI9999
aI9999
aI9999
aF4.855166912078857
aF4.731770992279053
aF5.717803955078125
aI9999
aaI-1
aa(lp1985
(lp1986
I9999
aI9999
aI9999
aI9999
aF4.940197944641113
aF4.811237335205078
aF5.808992385864258
aI9999
aaI-1
aa(lp1987
(lp1988
I9999
aI9999
aI9999
aI9999
aF5.077432155609131
aF4.924860000610352
aF5.917992115020752
aI9999
aaI-1
aa(lp1989
(lp1990
I9999
aI9999
aI9999
aI9999
aF5.109727382659912
aF4.951216697692871
aF5.942721843719482
aI9999
aaI-1
aa(lp1991
(lp1992
I9999
aI9999
aI9999
aI9999
aF5.099030017852783
aF4.943522930145264
aF5.937220573425293
aI9999
aaI-1
aa(lp1993
(lp1994
I9999
aI9999
aI9999
aI9999
aF5.088644504547119
aF4.9366984367370605
aF5.933567523956299
aI9999
aaI-1
aa(lp1995
(lp1996
I9999
aI9999
aI9999
aI9999
aF5.021066665649414
aF4.891945838928223
aF5.909210681915283
aI9999
aaI-1
aa(lp1997
(lp1998
I9999
aI9999
aI9999
aI9999
aF5.011302471160889
aF4.8947553634643555
aF5.930219650268555
aI9999
aaI-1
aa(lp1999
(lp2000
I9999
aI9999
aF4.6926398277282715
aF4.302786827087402
aF4.860738277435303
aI9999
aI9999
aI9999
aaI-1
aa.