(lp0
(lp1
(lp2
I9999
aI9999
aF4.7524027824401855
aF4.314242362976074
aF4.823978424072266
aI9999
aI9999
aI9999
aaI-1
aa(lp3
(lp4
I9999
aI9999
aF4.752398490905762
aF4.31423807144165
aF4.823973655700684
aI9999
aI9999
aI9999
aaI-1
aa(lp5
(lp6
I9999
aI9999
aF4.752412796020508
aF4.3142547607421875
aF4.823996543884277
aI9999
aI9999
aI9999
aaI-1
aa(lp7
(lp8
I9999
aI9999
aF4.752378940582275
aF4.3142218589782715
aF4.823957443237305
aI9999
aI9999
aI9999
aaI-1
aa(lp9
(lp10
I9999
aI9999
aI9999
aF5.037796497344971
aF4.326254844665527
aF4.585929870605469
aI9999
aI9999
aaI-1
aa(lp11
(lp12
I9999
aI9999
aI9999
aI9999
aI9999
aF5.082891941070557
aF4.31691837310791
aF4.530620098114014
aaI-1
aa(lp13
(lp14
I9999
aI9999
aI9999
aI9999
aI9999
aI9999
aI9999
aF5.183051586151123
aaI-1
aa(lp15
(lp16
I9999
aI9999
aI9999
aI9999
aI9999
aI9999
aI9999
aI9999
aaI-1
aa(lp17
(lp18
I9999
aI9999
aI9999
aI9999
aI9999
aI9999
aI9999
aI9999
aaI-1
aa(lp19
(lp20
F0.23500008881092072
aF0.2609018385410309
aF0.300494521856308
aF0.24103720486164093
aI9999
aI9999
aI9999
aI9999
aaI-1
aa.