(lp0
(lp1
(lp2
I9999
aI9999
aF4.683354377746582
aF4.323002338409424
aF4.917654037475586
aI9999
aI9999
aI9999
aaI-1
aa(lp3
(lp4
I9999
aI9999
aF5.243834018707275
aF4.385950565338135
aF4.541573524475098
aF5.923897743225098
aI9999
aI9999
aaI-1
aa(lp5
(lp6
I9999
aI9999
aI9999
aF5.017096996307373
aF4.36833381652832
aF4.68984317779541
aI9999
aI9999
aaI-1
aa(lp7
(lp8
I9999
aI9999
aI9999
aI9999
aF4.732064723968506
aF4.315738677978516
aF4.848519325256348
aI9999
aaI-1
aa(lp9
(lp10
I9999
aI9999
aI9999
aI9999
aF4.77894401550293
aF4.2075018882751465
aF4.564886569976807
aI9999
aaI-1
aa(lp11
(lp12
I9999
aI9999
aI9999
aI9999
aF4.606743812561035
aF4.05977201461792
aF4.408636093139648
aI9999
aaI-1
aa(lp13
(lp14
I9999
aI9999
aI9999
aI9999
aF4.400330543518066
aF3.876906394958496
aF4.209059238433838
aI9999
aaI-1
aa(lp15
(lp16
I9999
aI9999
aI9999
aF0.24103720486164093
aF0.24103720486164093
aF3.717101812362671
aF4.026215076446533
aI9999
aaI-1
aa(lp17
(lp18
I9999
aI9999
aF0.300494521856308
aF0.24103720486164093
aF0.24103720486164093
aF3.5731825828552246
aF3.876216411590576
aI9999
aaI-1
aa(lp19
(lp20
I9999
aI9999
aF0.300494521856308
aF0.24103720486164093
aF0.24103720486164093
aF3.469625234603882
aF3.7587356567382812
aF5.2291154861450195
aaI1
aa(lp21
(lp22
I9999
aI9999
aI9999
aF5.943685531616211
aF3.9345502853393555
aF3.450864553451538
aF3.7303900718688965
aF5.172953128814697
aaI1
aa(lp23
(lp24
I9999
aF0.2609018087387085
aF0.3004944622516632
aF0.24103717505931854
aF0.24103717505931854
aF3.4474337100982666
aF3.7176878452301025
aF5.136756420135498
aaI1
aa(lp25
(lp26
I9999
aI9999
aF0.300494521856308
aF0.24103720486164093
aF0.24103720486164093
aF3.244436025619507
aF3.4946227073669434
aF4.820019245147705
aaI1
aa(lp27
(lp28
I9999
aI9999
aF0.300494521856308
aF0.24103720486164093
aF0.24103720486164093
aF3.0239672660827637
aF3.249508857727051
aF4.466369152069092
aaI1
aa(lp29
(lp30
F0.23500007390975952
aF0.2609018385410309
aI9999
aF5.993122577667236
aF3.939467668533325
aF3.4411730766296387
aF3.7056732177734375
aF5.109358310699463
aaI1
aa(lp31
(lp32
I9999
aI9999
aI9999
aI9999
aF5.009749889373779
aF4.372825622558594
aF4.70564603805542
aI9999
aaI-1
aa(lp33
(lp34
I9999
aI9999
aI9999
aI9999
aF5.388932704925537
aF4.6960225105285645
aF5.0456061363220215
aI9999
aaI-1
aa(lp35
(lp36
I9999
aI9999
aI9999
aI9999
aF5.14095401763916
aF4.474536418914795
aF4.802219867706299
aI9999
aaI-1
aa(lp37
(lp38
I9999
aI9999
aI9999
aI9999
aF4.484446048736572
aF3.9014663696289062
aF4.185513973236084
aF5.7388505935668945
aaI-1
aa(lp39
(lp40
I9999
aI9999
aF0.3004944920539856
aI9999
aF4.0825676918029785
aF3.553252696990967
aF3.8133718967437744
aF5.231471061706543
aaI-1
aa(lp41
(lp42
I9999
aI9999
aI9999
aF0.24103721976280212
aF0.24103721976280212
aF0.300494521856308
aF0.2609018087387085
aF4.671651840209961
aaI1
aa(lp43
(lp44
I9999
aI9999
aI9999
aF3.7171719074249268
aF2.4076743125915527
aF2.0856168270111084
aF2.2284657955169678
aF3.0375354290008545
aaI-1
aa(lp45
(lp46
I9999
aI9999
aI9999
aF4.97048282623291
aF3.2442338466644287
aF2.8224589824676514
aF3.027926206588745
aF4.151609420776367
aaI1
aa(lp47
(lp48
I9999
aI9999
aI9999
aF4.821101188659668
aF4.77537202835083
aF5.883750915527344
aI9999
aI9999
aaI-1
aa(lp49
(lp50
I9999
aI9999
aI9999
aF5.722951889038086
aF5.957561016082764
aI9999
aI9999
aI9999
aaI-1
aa(lp51
(lp52
I9999
aI9999
aI9999
aF5.801258563995361
aI9999
aI9999
aI9999
aI9999
aaI-1
aa(lp53
(lp54
I9999
aI9999
aI9999
aI9999
aI9999
aF0.300494521856308
aI9999
aI9999
aaI-1
aa(lp55
(lp56
I9999
aI9999
aI9999
aI9999
aI9999
aF0.300494521856308
aI9999
aI9999
aaI-1
aa(lp57
(lp58
I9999
aI9999
aI9999
aI9999
aI9999
aF0.300494521856308
aI9999
aI9999
aaI-1
aa(lp59
(lp60
I9999
aI9999
aI9999
aI9999
aI9999
aF0.300494521856308
aI9999
aI9999
aaI-1
aa(lp61
(lp62
F0.23500008881092072
aF0.2609018385410309
aI9999
aI9999
aI9999
aI9999
aI9999
aI9999
aaI-1
aa(lp63
(lp64
I9999
aI9999
aI9999
aI9999
aI9999
aI9999
aI9999
aI9999
aaI-1
aa(lp65
(lp66
I9999
aI9999
aI9999
aI9999
aI9999
aI9999
aI9999
aI9999
aaI-1
aa(lp67
(lp68
F0.23500007390975952
aF0.2609018385410309
aI9999
aI9999
aI9999
aI9999
aI9999
aI9999
aaI-1
aa(lp69
(lp70
F0.23500007390975952
aF0.2609018385410309
aF0.30049455165863037
aI9999
aI9999
aI9999
aI9999
aI9999
aaI-1
aa(lp71
(lp72
F5.503028392791748
aF5.959577560424805
aI9999
aI9999
aI9999
aI9999
aI9999
aI9999
aaI-1
aa(lp73
(lp74
I9999
aI9999
aI9999
aI9999
aI9999
aI9999
aI9999
aI9999
aaI-1
aa(lp75
(lp76
I9999
aI9999
aI9999
aI9999
aI9999
aI9999
aI9999
aI9999
aaI-1
aa(lp77
(lp78
I9999
aI9999
aI9999
aI9999
aI9999
aI9999
aI9999
aI9999
aaI-1
aa(lp79
(lp80
I9999
aI9999
aI9999
aI9999
aI9999
aI9999
aI9999
aI9999
aaI-1
aa(lp81
(lp82
I9999
aI9999
aI9999
aI9999
aI9999
aI9999
aI9999
aI9999
aaI-1
aa(lp83
(lp84
I9999
aI9999
aI9999
aI9999
aI9999
aI9999
aI9999
aI9999
aaI-1
aa(lp85
(lp86
I9999
aI9999
aI9999
aI9999
aI9999
aI9999
aI9999
aI9999
aaI1
aa(lp87
(lp88
I9999
aI9999
aI9999
aI9999
aI9999
aI9999
aF4.444953918457031
aF3.520071029663086
aaI1
aa(lp89
(lp90
I9999
aI9999
aI9999
aI9999
aI9999
aI9999
aF4.529426574707031
aF3.581240177154541
aaI1
aa(lp91
(lp92
I9999
aI9999
aI9999
aI9999
aI9999
aF4.394448757171631
aF3.607957601547241
aF3.6774284839630127
aaI1
aa(lp93
(lp94
I9999
aI9999
aI9999
aI9999
aI9999
aF4.127155303955078
aF3.6566286087036133
aF3.991330862045288
aaI1
aa(lp95
(lp96
I9999
aI9999
aI9999
aI9999
aI9999
aF4.229922294616699
aF3.7513160705566406
aF4.098532199859619
aaI-1
aa(lp97
(lp98
I9999
aI9999
aI9999
aF5.354152202606201
aF4.066854000091553
aF3.900815963745117
aF4.627509117126465
aI9999
aaI-1
aa(lp99
(lp100
I9999
aI9999
aI9999
aF4.893732070922852
aF4.0613112449646
aF4.177296161651611
aF5.399977207183838
aI9999
aaI-1
aa(lp101
(lp102
I9999
aI9999
aI9999
aF5.067840576171875
aF4.200894355773926
aF4.316564083099365
aF5.572632312774658
aI9999
aaI-1
aa(lp103
(lp104
I9999
aI9999
aI9999
aF5.263195514678955
aF4.326128959655762
aF4.4136223793029785
aF5.644662857055664
aI9999
aaI-1
aa(lp105
(lp106
I9999
aI9999
aI9999
aF5.4645891189575195
aF4.486508369445801
aF4.572841644287109
aI9999
aI9999
aaI-1
aa(lp107
(lp108
I9999
aI9999
aF0.30049455165863037
aF0.24103723466396332
aF0.24103721976280212
aF4.65720272064209
aI9999
aI9999
aaI-1
aa(lp109
(lp110
I9999
aF0.2609018385410309
aF0.3004944920539856
aF0.24103720486164093
aF4.552509784698486
aF4.6448774337768555
aI9999
aI9999
aaI-1
aa(lp111
(lp112
I9999
aF0.2609018385410309
aF0.300494521856308
aF0.24103720486164093
aF4.512552261352539
aF4.598150730133057
aF5.871232986450195
aI9999
aaI-1
aa(lp113
(lp114
I9999
aF5.663337230682373
aF4.498457431793213
aF4.463539123535156
aF5.511240482330322
aI9999
aI9999
aI9999
aaI-1
aa(lp115
(lp116
I9999
aF5.126448631286621
aF4.406412124633789
aF4.674790859222412
aI9999
aF0.3004944920539856
aF0.26090189814567566
aI9999
aaI-1
aa(lp117
(lp118
I9999
aF5.218751430511475
aF4.486771583557129
aF4.7610321044921875
aI9999
aI9999
aI9999
aI9999
aaI-1
aa(lp119
(lp120
I9999
aF4.825067520141602
aF4.1264567375183105
aF4.357753753662109
aF5.840843200683594
aI9999
aI9999
aI9999
aaI-1
aa(lp121
(lp122
F5.603473663330078
aF3.5517892837524414
aF3.0401861667633057
aF3.2131292819976807
aF4.311481952667236
aI9999
aI9999
aI9999
aaI1
aa(lp123
(lp124
F3.588897228240967
aF2.3328285217285156
aF2.0248095989227295
aF2.1674914360046387
aF0.24103720486164093
aF0.300494521856308
aF0.2609018385410309
aI9999
aaI-1
aa(lp125
(lp126
F3.963376760482788
aF2.557237386703491
aF2.2103872299194336
aF2.357067823410034
aF3.2035152912139893
aI9999
aI9999
aI9999
aaI-1
aa(lp127
(lp128
I9999
aF3.9430782794952393
aF3.4219131469726562
aF3.662513494491577
aF5.004641056060791
aI9999
aI9999
aI9999
aaI-1
aa(lp129
(lp130
I9999
aF4.763409614562988
aF4.158943176269531
aF4.476637363433838
aI9999
aI9999
aI9999
aI9999
aaI-1
aa(lp131
(lp132
I9999
aF4.737977027893066
aF4.160839080810547
aF4.5033345222473145
aF0.24103720486164093
aF0.3004944920539856
aF0.2609018385410309
aI9999
aaI-1
aa(lp133
(lp134
I9999
aF4.6656999588012695
aF4.094048976898193
aF4.427639961242676
aI9999
aI9999
aI9999
aI9999
aaI-1
aa(lp135
(lp136
I9999
aF4.479288101196289
aF3.9683189392089844
aF0.24103718996047974
aF0.24103717505931854
aF0.3004944920539856
aF0.2609018385410309
aI9999
aaI-1
aa(lp137
(lp138
F3.859226703643799
aF3.8708181381225586
aF0.3004944622516632
aF0.24103714525699615
aF0.24103714525699615
aF0.3004944324493408
aI9999
aI9999
aaI-1
aa(lp139
(lp140
F3.6476492881774902
aF3.967550277709961
aF5.553413391113281
aI9999
aI9999
aI9999
aI9999
aI9999
aaI-1
aa(lp141
(lp142
F3.6283326148986816
aF3.9597859382629395
aF5.571014404296875
aI9999
aI9999
aI9999
aI9999
aI9999
aaI-1
aa(lp143
(lp144
F3.605440378189087
aF3.947209596633911
aF5.580337047576904
aI9999
aI9999
aI9999
aI9999
aI9999
aaI-1
aa(lp145
(lp146
F4.167203426361084
aI9999
aI9999
aI9999
aI9999
aI9999
aI9999
aI9999
aaI-1
aa(lp147
(lp148
I9999
aI9999
aI9999
aI9999
aI9999
aI9999
aI9999
aI9999
aaI-1
aa(lp149
(lp150
F3.4716827869415283
aF4.418314456939697
aI9999
aI9999
aI9999
aI9999
aI9999
aI9999
aaI1
aa(lp151
(lp152
F3.387655019760132
aF4.226459980010986
aI9999
aI9999
aI9999
aI9999
aI9999
aI9999
aaI1
aa(lp153
(lp154
F3.3301033973693848
aF4.158337593078613
aI9999
aI9999
aI9999
aI9999
aI9999
aI9999
aaI1
aa(lp155
(lp156
F4.084674835205078
aF3.274841070175171
aF3.273542642593384
aF4.0790205001831055
aI9999
aI9999
aI9999
aI9999
aaI1
aa(lp157
(lp158
F3.163855791091919
aF3.068561315536499
aF3.687045097351074
aI9999
aI9999
aI9999
aI9999
aI9999
aaI1
aa(lp159
(lp160
F2.8824973106384277
aF2.974815607070923
aF3.8628556728363037
aI9999
aI9999
aI9999
aI9999
aI9999
aaI1
aa(lp161
(lp162
F2.7568488121032715
aF2.8488800525665283
aF3.7058486938476562
aI9999
aI9999
aI9999
aI9999
aI9999
aaI1
aa(lp163
(lp164
F2.6440091133117676
aF2.734567165374756
aF3.5611681938171387
aI9999
aI9999
aI9999
aI9999
aI9999
aaI1
aa(lp165
(lp166
F2.548062801361084
aF2.6377320289611816
aF3.4392755031585693
aI9999
aI9999
aI9999
aI9999
aI9999
aaI1
aa(lp167
(lp168
F2.724139928817749
aF4.0247297286987305
aI9999
aI9999
aI9999
aI9999
aI9999
aI9999
aaI1
aa(lp169
(lp170
F4.081267833709717
aI9999
aI9999
aI9999
aI9999
aI9999
aI9999
aI9999
aaI-1
aa(lp171
(lp172
F2.2676329612731934
aF2.6683406829833984
aF4.266425609588623
aI9999
aI9999
aI9999
aI9999
aI9999
aaI-1
aa(lp173
(lp174
F2.2196826934814453
aF2.649158000946045
aF4.352513790130615
aI9999
aI9999
aI9999
aI9999
aI9999
aaI-1
aa(lp175
(lp176
F2.22715425491333
aF2.806095838546753
aF5.17549991607666
aI9999
aI9999
aI9999
aI9999
aI9999
aaI-1
aa(lp177
(lp178
F2.213407278060913
aF2.7826273441314697
aF5.106057167053223
aI9999
aI9999
aI9999
aI9999
aI9999
aaI-1
aa(lp179
(lp180
F2.82486891746521
aF3.5595600605010986
aI9999
aI9999
aI9999
aI9999
aF0.2609018385410309
aF0.23500007390975952
aaI1
aa(lp181
(lp182
F4.351825714111328
aF5.47609281539917
aI9999
aI9999
aI9999
aF0.300494521856308
aF0.2609018385410309
aF0.23500007390975952
aaI-1
aa(lp183
(lp184
F0.23500008881092072
aI9999
aI9999
aI9999
aI9999
aI9999
aI9999
aI9999
aaI-1
aa(lp185
(lp186
F5.268856525421143
aI9999
aI9999
aI9999
aI9999
aI9999
aI9999
aI9999
aaI-1
aa(lp187
(lp188
F5.549427509307861
aI9999
aI9999
aI9999
aI9999
aI9999
aI9999
aI9999
aaI-1
aa(lp189
(lp190
I9999
aI9999
aI9999
aI9999
aI9999
aI9999
aI9999
aI9999
aaI-1
aa(lp191
(lp192
I9999
aI9999
aI9999
aI9999
aI9999
aI9999
aI9999
aI9999
aaI-1
aa(lp193
(lp194
I9999
aI9999
aI9999
aI9999
aI9999
aI9999
aI9999
aI9999
aaI-1
aa(lp195
(lp196
I9999
aI9999
aI9999
aI9999
aI9999
aI9999
aI9999
aI9999
aaI-1
aa(lp197
(lp198
F5.784335613250732
aI9999
aI9999
aI9999
aI9999
aI9999
aI9999
aI9999
aaI-1
aa(lp199
(lp200
I9999
aI9999
aF5.8730340003967285
aI9999
aI9999
aI9999
aI9999
aI9999
aaI-1
aa.