(lp0
(lp1
(lp2
I9999
aI9999
aF5.9409918785095215
aF4.857407093048096
aF4.933750152587891
aI9999
aI9999
aI9999
aaI-1
aa(lp3
(lp4
I9999
aI9999
aI9999
aF5.155208110809326
aF4.864167213439941
aF5.665290832519531
aI9999
aI9999
aaI-1
aa(lp5
(lp6
I9999
aI9999
aI9999
aI9999
aF5.147871971130371
aF5.0379438400268555
aI9999
aI9999
aaI-1
aa(lp7
(lp8
I9999
aI9999
aI9999
aI9999
aI9999
aF5.116695404052734
aF5.198282241821289
aI9999
aaI-1
aa(lp9
(lp10
I9999
aI9999
aI9999
aI9999
aI9999
aF4.898913860321045
aF4.705423355102539
aF5.59083366394043
aaI-1
aa(lp11
(lp12
I9999
aI9999
aI9999
aI9999
aI9999
aF5.551754951477051
aF3.938448190689087
aF0.23500022292137146
aaI1
aa(lp13
(lp14
I9999
aI9999
aI9999
aI9999
aI9999
aF0.30049416422843933
aF0.26090240478515625
aF4.644716262817383
aaI1
aa(lp15
(lp16
I9999
aI9999
aI9999
aI9999
aI9999
aI9999
aI9999
aI9999
aaI-1
aa(lp17
(lp18
I9999
aF0.26090168952941895
aF0.3004944920539856
aF0.24103718996047974
aF0.24103720486164093
aI9999
aI9999
aI9999
aaI1
aa(lp19
(lp20
I9999
aF0.2609018385410309
aF0.30049455165863037
aF0.24103723466396332
aF0.24103723466396332
aF0.30049455165863037
aI9999
aI9999
aaI-1
aa(lp21
(lp22
F0.2350013107061386
aF0.2609032094478607
aI9999
aI9999
aI9999
aI9999
aI9999
aI9999
aaI-1
aa(lp23
(lp24
I9999
aI9999
aI9999
aI9999
aI9999
aI9999
aI9999
aI9999
aaI-1
aa(lp25
(lp26
I9999
aF5.7823052406311035
aI9999
aI9999
aI9999
aI9999
aI9999
aI9999
aaI-1
aa(lp27
(lp28
I9999
aI9999
aI9999
aI9999
aI9999
aI9999
aI9999
aI9999
aaI-1
aa(lp29
(lp30
I9999
aI9999
aI9999
aI9999
aI9999
aI9999
aI9999
aI9999
aaI-1
aa(lp31
(lp32
I9999
aI9999
aI9999
aI9999
aI9999
aI9999
aI9999
aI9999
aaI-1
aa(lp33
(lp34
F0.23500019311904907
aI9999
aI9999
aI9999
aI9999
aI9999
aI9999
aI9999
aaI-1
aa(lp35
(lp36
I9999
aI9999
aF0.30049413442611694
aF0.24103690683841705
aI9999
aF0.30049416422843933
aF0.26090338826179504
aI9999
aaI-1
aa(lp37
(lp38
I9999
aI9999
aI9999
aI9999
aI9999
aI9999
aI9999
aI9999
aaI-1
aa(lp39
(lp40
I9999
aF0.2609005570411682
aF0.30049410462379456
aF0.24103686213493347
aF0.24103686213493347
aI9999
aI9999
aI9999
aaI-1
aa(lp41
(lp42
I9999
aI9999
aF0.3004950284957886
aF0.24103762209415436
aI9999
aI9999
aI9999
aI9999
aaI-1
aa(lp43
(lp44
I9999
aI9999
aF0.30049434304237366
aF0.24103707075119019
aF0.24103708565235138
aF0.30049437284469604
aI9999
aI9999
aaI-1
aa(lp45
(lp46
I9999
aI9999
aI9999
aI9999
aI9999
aI9999
aI9999
aI9999
aaI-1
aa(lp47
(lp48
I9999
aI9999
aI9999
aI9999
aF0.24103718996047974
aI9999
aI9999
aI9999
aaI-1
aa(lp49
(lp50
I9999
aF5.012803077697754
aF5.140822410583496
aI9999
aI9999
aI9999
aI9999
aI9999
aaI-1
aa(lp51
(lp52
F5.1150641441345215
aF3.7135703563690186
aF0.3004944324493408
aF0.24103714525699615
aF0.24103714525699615
aF0.3004944622516632
aF0.26090192794799805
aI9999
aaI1
aa(lp53
(lp54
I9999
aF3.9126710891723633
aF3.213820695877075
aF3.2769105434417725
aF4.1877217292785645
aI9999
aI9999
aF0.23500007390975952
aaI1
aa(lp55
(lp56
I9999
aF5.287178993225098
aF4.33632230758667
aF4.415910243988037
aF5.6341094970703125
aI9999
aI9999
aF0.23500007390975952
aaI-1
aa(lp57
(lp58
F0.23500047624111176
aF0.2609022855758667
aF0.30049410462379456
aF0.24103686213493347
aF0.24103686213493347
aF0.30049410462379456
aI9999
aI9999
aaI-1
aa(lp59
(lp60
F4.339492321014404
aF0.2609020471572876
aF0.3004944920539856
aF0.24103717505931854
aF0.24103717505931854
aI9999
aI9999
aI9999
aaI-1
aa(lp61
(lp62
F5.403833389282227
aF3.4615530967712402
aF2.980086088180542
aF3.1661782264709473
aI9999
aI9999
aI9999
aI9999
aaI1
aa(lp63
(lp64
I9999
aF2.9953978061676025
aF2.2506697177886963
aF2.141946315765381
aF2.5186262130737305
aI9999
aI9999
aI9999
aaI-1
aa(lp65
(lp66
I9999
aI9999
aF3.783027410507202
aF3.0400586128234863
aF3.044532537460327
aF3.8025124073028564
aI9999
aI9999
aaI1
aa(lp67
(lp68
F5.590947151184082
aF4.569725513458252
aF4.640297889709473
aI9999
aI9999
aI9999
aI9999
aI9999
aaI-1
aa(lp69
(lp70
I9999
aI9999
aI9999
aI9999
aF0.24103720486164093
aF0.300494521856308
aI9999
aI9999
aaI-1
aa(lp71
(lp72
I9999
aI9999
aF0.30049440264701843
aF0.24103711545467377
aF0.24103711545467377
aF0.30049440264701843
aF0.26090186834335327
aI9999
aaI-1
aa(lp73
(lp74
I9999
aI9999
aF0.3004944920539856
aF0.24103720486164093
aF0.24103720486164093
aF0.300494521856308
aI9999
aI9999
aaI-1
aa(lp75
(lp76
I9999
aI9999
aF0.3004944920539856
aF0.24103717505931854
aF0.24103717505931854
aF0.3004944920539856
aF0.26090165972709656
aI9999
aaI-1
aa(lp77
(lp78
I9999
aF0.260902464389801
aF0.30049461126327515
aF0.2410372793674469
aF0.2410372793674469
aF0.30049461126327515
aI9999
aI9999
aaI-1
aa(lp79
(lp80
F0.23500069975852966
aF0.2609025239944458
aF0.3004947304725647
aF0.24103736877441406
aF0.24103736877441406
aF0.3004947304725647
aI9999
aI9999
aaI-1
aa(lp81
(lp82
I9999
aF0.2609018385410309
aF0.300494521856308
aF0.24103721976280212
aF0.24103721976280212
aF0.30049455165863037
aI9999
aI9999
aaI-1
aa(lp83
(lp84
I9999
aI9999
aI9999
aI9999
aI9999
aI9999
aI9999
aF0.23500089347362518
aaI-1
aa(lp85
(lp86
I9999
aI9999
aI9999
aI9999
aI9999
aI9999
aI9999
aF0.2350001037120819
aaI-1
aa(lp87
(lp88
I9999
aI9999
aI9999
aI9999
aI9999
aI9999
aI9999
aI9999
aaI-1
aa(lp89
(lp90
I9999
aF0.26089948415756226
aI9999
aI9999
aI9999
aI9999
aF0.2609041631221771
aI9999
aaI-1
aa(lp91
(lp92
I9999
aI9999
aI9999
aI9999
aI9999
aI9999
aI9999
aI9999
aaI-1
aa(lp93
(lp94
I9999
aI9999
aI9999
aI9999
aI9999
aI9999
aI9999
aI9999
aaI-1
aa(lp95
(lp96
I9999
aI9999
aI9999
aI9999
aI9999
aI9999
aI9999
aI9999
aaI-1
aa(lp97
(lp98
I9999
aI9999
aF0.3004951477050781
aF0.24103771150112152
aI9999
aI9999
aI9999
aI9999
aaI-1
aa(lp99
(lp100
I9999
aI9999
aI9999
aI9999
aI9999
aI9999
aI9999
aI9999
aaI-1
aa(lp101
(lp102
F0.23500016331672668
aI9999
aI9999
aI9999
aI9999
aI9999
aI9999
aI9999
aaI-1
aa(lp103
(lp104
I9999
aI9999
aI9999
aF0.2410365492105484
aF0.2410365641117096
aF0.3004937171936035
aF0.26090359687805176
aF0.23500168323516846
aaI-1
aa(lp105
(lp106
F0.2350018173456192
aF0.2609037756919861
aF0.3004933297634125
aF0.24103625118732452
aI9999
aI9999
aI9999
aI9999
aaI-1
aa(lp107
(lp108
I9999
aI9999
aI9999
aI9999
aI9999
aF0.30049458146095276
aI9999
aI9999
aaI-1
aa(lp109
(lp110
I9999
aI9999
aI9999
aI9999
aI9999
aF0.3004944920539856
aI9999
aI9999
aaI-1
aa(lp111
(lp112
I9999
aI9999
aI9999
aI9999
aI9999
aF0.300494521856308
aI9999
aI9999
aaI-1
aa(lp113
(lp114
I9999
aI9999
aI9999
aI9999
aI9999
aF0.300494521856308
aI9999
aI9999
aaI-1
aa(lp115
(lp116
I9999
aI9999
aI9999
aI9999
aI9999
aI9999
aI9999
aI9999
aaI1
aa(lp117
(lp118
I9999
aI9999
aI9999
aI9999
aI9999
aI9999
aI9999
aI9999
aaI-1
aa(lp119
(lp120
I9999
aI9999
aI9999
aI9999
aI9999
aI9999
aI9999
aI9999
aaI-1
aa(lp121
(lp122
I9999
aI9999
aI9999
aI9999
aI9999
aI9999
aI9999
aI9999
aaI-1
aa(lp123
(lp124
I9999
aI9999
aI9999
aI9999
aI9999
aI9999
aI9999
aI9999
aaI-1
aa(lp125
(lp126
I9999
aI9999
aI9999
aI9999
aI9999
aF0.30049461126327515
aF0.26090171933174133
aF0.23499996960163116
aaI-1
aa(lp127
(lp128
I9999
aI9999
aI9999
aI9999
aI9999
aI9999
aF0.2609018385410309
aI9999
aaI1
aa(lp129
(lp130
I9999
aI9999
aI9999
aI9999
aI9999
aI9999
aI9999
aI9999
aaI-1
aa(lp131
(lp132
I9999
aI9999
aI9999
aI9999
aI9999
aI9999
aI9999
aI9999
aaI-1
aa(lp133
(lp134
I9999
aF0.2609025835990906
aF0.3004955053329468
aI9999
aI9999
aI9999
aI9999
aI9999
aaI1
aa(lp135
(lp136
I9999
aI9999
aF0.300494521856308
aF0.24103721976280212
aI9999
aI9999
aI9999
aI9999
aaI-1
aa(lp137
(lp138
I9999
aI9999
aI9999
aI9999
aF0.2410372495651245
aF0.30049458146095276
aI9999
aI9999
aaI-1
aa(lp139
(lp140
I9999
aI9999
aI9999
aI9999
aF0.24103721976280212
aF0.300494521856308
aI9999
aI9999
aaI-1
aa(lp141
(lp142
I9999
aI9999
aI9999
aI9999
aF0.24103721976280212
aF0.300494521856308
aI9999
aI9999
aaI-1
aa(lp143
(lp144
I9999
aI9999
aI9999
aI9999
aF0.24103721976280212
aF0.300494521856308
aI9999
aI9999
aaI-1
aa(lp145
(lp146
I9999
aI9999
aI9999
aI9999
aI9999
aI9999
aI9999
aI9999
aaI-1
aa(lp147
(lp148
I9999
aI9999
aI9999
aI9999
aI9999
aF0.3004942238330841
aI9999
aI9999
aaI-1
aa(lp149
(lp150
I9999
aI9999
aI9999
aI9999
aI9999
aI9999
aI9999
aI9999
aaI-1
aa(lp151
(lp152
I9999
aI9999
aF0.3004942834377289
aF0.2410370111465454
aF0.2410370111465454
aF0.3004942536354065
aF0.2609013617038727
aI9999
aaI-1
aa(lp153
(lp154
I9999
aI9999
aI9999
aI9999
aI9999
aI9999
aI9999
aI9999
aaI-1
aa(lp155
(lp156
I9999
aI9999
aI9999
aI9999
aI9999
aI9999
aI9999
aI9999
aaI-1
aa(lp157
(lp158
I9999
aI9999
aF0.3004940152168274
aF0.2410368174314499
aF0.2410368174314499
aF0.3004940450191498
aF0.2609004080295563
aI9999
aaI-1
aa(lp159
(lp160
I9999
aI9999
aI9999
aI9999
aI9999
aI9999
aI9999
aI9999
aaI-1
aa(lp161
(lp162
I9999
aI9999
aI9999
aI9999
aI9999
aI9999
aI9999
aI9999
aaI-1
aa(lp163
(lp164
I9999
aI9999
aI9999
aI9999
aI9999
aI9999
aI9999
aI9999
aaI-1
aa(lp165
(lp166
I9999
aI9999
aF0.30049458146095276
aI9999
aI9999
aF0.30049461126327515
aF0.26090240478515625
aF0.2350005805492401
aaI-1
aa(lp167
(lp168
I9999
aI9999
aF0.30049455165863037
aF0.24103723466396332
aF0.24103723466396332
aF0.30049455165863037
aF0.26090168952941895
aI9999
aaI-1
aa(lp169
(lp170
I9999
aI9999
aI9999
aI9999
aI9999
aI9999
aI9999
aI9999
aaI-1
aa(lp171
(lp172
I9999
aI9999
aI9999
aI9999
aI9999
aI9999
aI9999
aI9999
aaI-1
aa(lp173
(lp174
I9999
aI9999
aI9999
aI9999
aI9999
aI9999
aI9999
aI9999
aaI-1
aa(lp175
(lp176
I9999
aI9999
aI9999
aI9999
aI9999
aI9999
aI9999
aI9999
aaI-1
aa(lp177
(lp178
I9999
aI9999
aI9999
aI9999
aI9999
aI9999
aI9999
aI9999
aaI-1
aa(lp179
(lp180
I9999
aI9999
aI9999
aI9999
aI9999
aI9999
aI9999
aI9999
aaI-1
aa(lp181
(lp182
I9999
aI9999
aI9999
aI9999
aI9999
aI9999
aI9999
aI9999
aaI-1
aa(lp183
(lp184
I9999
aI9999
aI9999
aI9999
aI9999
aI9999
aI9999
aF0.23500129580497742
aaI-1
aa(lp185
(lp186
I9999
aI9999
aI9999
aI9999
aI9999
aI9999
aI9999
aI9999
aaI-1
aa(lp187
(lp188
I9999
aI9999
aI9999
aI9999
aI9999
aI9999
aI9999
aI9999
aaI-1
aa(lp189
(lp190
I9999
aI9999
aI9999
aI9999
aI9999
aI9999
aI9999
aI9999
aaI-1
aa(lp191
(lp192
I9999
aI9999
aI9999
aI9999
aI9999
aI9999
aI9999
aI9999
aaI-1
aa(lp193
(lp194
I9999
aI9999
aI9999
aI9999
aI9999
aI9999
aI9999
aI9999
aaI-1
aa(lp195
(lp196
I9999
aI9999
aI9999
aI9999
aI9999
aI9999
aI9999
aI9999
aaI-1
aa(lp197
(lp198
I9999
aI9999
aI9999
aI9999
aI9999
aI9999
aI9999
aI9999
aaI-1
aa(lp199
(lp200
I9999
aI9999
aI9999
aI9999
aI9999
aI9999
aI9999
aI9999
aaI-1
aa.