(lp0
(lp1
(lp2
I9999
aF5.490546703338623
aF4.191574573516846
aF4.035332679748535
aF4.807341575622559
aI9999
aI9999
aI9999
aaI-1
aa(lp3
(lp4
I9999
aF5.500620365142822
aF4.202431678771973
aF4.048028945922852
aF4.825536251068115
aI9999
aI9999
aI9999
aaI-1
aa(lp5
(lp6
I9999
aI9999
aF5.43533992767334
aF4.218225955963135
aF4.111086368560791
aF4.967874526977539
aI9999
aI9999
aaI-1
aa(lp7
(lp8
I9999
aI9999
aI9999
aI9999
aF5.130313396453857
aF4.157838344573975
aF4.192680358886719
aF5.282081604003906
aaI-1
aa(lp9
(lp10
I9999
aI9999
aF5.545639991760254
aF4.207126617431641
aF4.031752109527588
aF4.777975082397461
aI9999
aI9999
aaI-1
aa(lp11
(lp12
I9999
aI9999
aF4.9805989265441895
aF4.058155059814453
aF4.110179901123047
aF5.207271575927734
aI9999
aI9999
aaI-1
aa(lp13
(lp14
I9999
aI9999
aF5.033185958862305
aF4.0830607414245605
aF4.120527744293213
aF5.196394443511963
aI9999
aI9999
aaI-1
aa(lp15
(lp16
I9999
aI9999
aF5.072889804840088
aF4.116074085235596
aF4.1545090675354
aF5.240316390991211
aI9999
aI9999
aaI-1
aa(lp17
(lp18
I9999
aI9999
aF4.833020210266113
aF3.944166898727417
aF0.24103720486164093
aF0.300494521856308
aI9999
aI9999
aaI-1
aa(lp19
(lp20
I9999
aI9999
aF4.197797775268555
aF3.584089756011963
aF3.7793586254119873
aI9999
aI9999
aI9999
aaI1
aa.