(lp0
(lp1
(lp2
I9999
aI9999
aI9999
aF5.040693283081055
aF5.074753761291504
aI9999
aI9999
aI9999
aaI-1
aa(lp3
(lp4
I9999
aI9999
aI9999
aI9999
aI9999
aF5.725231647491455
aI9999
aI9999
aaI-1
aa(lp5
(lp6
I9999
aI9999
aI9999
aI9999
aI9999
aI9999
aI9999
aI9999
aaI-1
aa(lp7
(lp8
I9999
aI9999
aI9999
aI9999
aI9999
aF0.30049437284469604
aI9999
aI9999
aaI-1
aa(lp9
(lp10
I9999
aI9999
aI9999
aI9999
aI9999
aI9999
aI9999
aI9999
aaI-1
aa(lp11
(lp12
I9999
aF0.26090288162231445
aF0.30049553513526917
aI9999
aI9999
aI9999
aI9999
aI9999
aaI-1
aa(lp13
(lp14
I9999
aI9999
aI9999
aI9999
aI9999
aF0.300494521856308
aI9999
aI9999
aaI-1
aa(lp15
(lp16
I9999
aI9999
aF0.300494521856308
aI9999
aI9999
aI9999
aI9999
aI9999
aaI-1
aa(lp17
(lp18
I9999
aI9999
aF0.30049455165863037
aI9999
aI9999
aF0.30049455165863037
aF0.2609017789363861
aI9999
aaI-1
aa(lp19
(lp20
I9999
aI9999
aI9999
aI9999
aI9999
aI9999
aI9999
aI9999
aaI-1
aa(lp21
(lp22
I9999
aI9999
aI9999
aI9999
aI9999
aF0.3004944920539856
aI9999
aI9999
aaI-1
aa(lp23
(lp24
I9999
aI9999
aI9999
aI9999
aI9999
aI9999
aI9999
aI9999
aaI-1
aa(lp25
(lp26
I9999
aI9999
aI9999
aI9999
aI9999
aI9999
aI9999
aI9999
aaI-1
aa(lp27
(lp28
I9999
aI9999
aI9999
aI9999
aI9999
aF0.3004944622516632
aI9999
aI9999
aaI-1
aa(lp29
(lp30
I9999
aI9999
aF0.300494521856308
aI9999
aI9999
aI9999
aI9999
aI9999
aaI-1
aa(lp31
(lp32
I9999
aI9999
aI9999
aI9999
aI9999
aI9999
aI9999
aI9999
aaI-1
aa(lp33
(lp34
I9999
aI9999
aF0.3004944920539856
aI9999
aI9999
aI9999
aI9999
aI9999
aaI-1
aa(lp35
(lp36
I9999
aI9999
aI9999
aI9999
aI9999
aI9999
aI9999
aI9999
aaI-1
aa(lp37
(lp38
I9999
aF0.26090264320373535
aF0.3004944622516632
aI9999
aI9999
aF0.3004944622516632
aI9999
aI9999
aaI-1
aa(lp39
(lp40
I9999
aF0.2609018087387085
aF0.30049455165863037
aI9999
aF0.24103723466396332
aF0.30049455165863037
aI9999
aI9999
aaI-1
aa(lp41
(lp42
I9999
aI9999
aI9999
aI9999
aI9999
aF0.3004944920539856
aI9999
aI9999
aaI-1
aa(lp43
(lp44
I9999
aI9999
aI9999
aI9999
aI9999
aI9999
aI9999
aI9999
aaI-1
aa(lp45
(lp46
I9999
aI9999
aI9999
aI9999
aI9999
aI9999
aI9999
aI9999
aaI-1
aa(lp47
(lp48
I9999
aI9999
aI9999
aI9999
aI9999
aI9999
aI9999
aI9999
aaI-1
aa(lp49
(lp50
I9999
aI9999
aI9999
aI9999
aI9999
aI9999
aI9999
aI9999
aaI-1
aa(lp51
(lp52
I9999
aF0.2609018385410309
aF0.300494521856308
aF0.24103721976280212
aI9999
aI9999
aI9999
aI9999
aaI-1
aa(lp53
(lp54
I9999
aF0.2609018385410309
aF0.300494521856308
aI9999
aI9999
aI9999
aI9999
aI9999
aaI-1
aa(lp55
(lp56
F5.210714817047119
aF0.2609018087387085
aF0.300494521856308
aI9999
aI9999
aI9999
aI9999
aI9999
aaI-1
aa(lp57
(lp58
F3.700552463531494
aF4.426660537719727
aI9999
aI9999
aI9999
aI9999
aI9999
aI9999
aaI-1
aa(lp59
(lp60
F3.0345852375030518
aF3.6165013313293457
aI9999
aI9999
aI9999
aI9999
aI9999
aI9999
aaI1
aa(lp61
(lp62
F3.019015073776245
aF3.6252808570861816
aI9999
aI9999
aI9999
aF0.3004944622516632
aF0.2609018385410309
aI9999
aaI1
aa(lp63
(lp64
F3.5895628929138184
aF4.306612491607666
aI9999
aI9999
aI9999
aI9999
aI9999
aI9999
aaI-1
aa(lp65
(lp66
F2.9140024185180664
aF0.26090186834335327
aF0.300494521856308
aI9999
aI9999
aI9999
aI9999
aI9999
aaI1
aa(lp67
(lp68
F1.7503248453140259
aF2.098827838897705
aF3.4804847240448
aI9999
aI9999
aI9999
aI9999
aI9999
aaI-1
aa(lp69
(lp70
F1.436362385749817
aF1.722919225692749
aF2.8589839935302734
aI9999
aI9999
aI9999
aI9999
aI9999
aaI-1
aa(lp71
(lp72
F1.9491335153579712
aF2.338341474533081
aF3.8813705444335938
aI9999
aI9999
aF0.300494521856308
aF0.2609018385410309
aI9999
aaI-1
aa(lp73
(lp74
F3.3520233631134033
aF4.022795677185059
aI9999
aI9999
aI9999
aF0.300494521856308
aF0.2609018385410309
aI9999
aaI1
aa(lp75
(lp76
F5.174177169799805
aI9999
aI9999
aI9999
aI9999
aF0.300494521856308
aI9999
aI9999
aaI-1
aa(lp77
(lp78
I9999
aI9999
aF0.300494521856308
aI9999
aI9999
aI9999
aI9999
aI9999
aaI-1
aa(lp79
(lp80
F5.288763046264648
aI9999
aI9999
aI9999
aI9999
aI9999
aI9999
aI9999
aaI-1
aa(lp81
(lp82
F5.919266223907471
aF5.368471622467041
aF5.997043609619141
aI9999
aI9999
aI9999
aI9999
aI9999
aaI-1
aa(lp83
(lp84
F0.23500044643878937
aI9999
aF5.952272415161133
aF5.314515590667725
aF5.84475040435791
aI9999
aI9999
aI9999
aaI-1
aa(lp85
(lp86
I9999
aI9999
aI9999
aI9999
aF5.714077472686768
aF5.043184757232666
aF5.484431266784668
aI9999
aaI-1
aa(lp87
(lp88
F0.23499919474124908
aI9999
aI9999
aF5.950303077697754
aF5.391175746917725
aI9999
aI9999
aI9999
aaI-1
aa(lp89
(lp90
I9999
aI9999
aI9999
aF0.24103723466396332
aF0.24103723466396332
aF0.30049455165863037
aF0.26090025901794434
aI9999
aaI-1
aa(lp91
(lp92
I9999
aI9999
aF0.30049455165863037
aI9999
aF0.24103723466396332
aF0.30049455165863037
aF0.2609017491340637
aI9999
aaI-1
aa(lp93
(lp94
I9999
aI9999
aI9999
aI9999
aI9999
aI9999
aI9999
aI9999
aaI-1
aa(lp95
(lp96
I9999
aI9999
aI9999
aI9999
aI9999
aI9999
aI9999
aI9999
aaI-1
aa(lp97
(lp98
I9999
aF0.2609018385410309
aF0.300494521856308
aI9999
aI9999
aI9999
aI9999
aI9999
aaI-1
aa(lp99
(lp100
I9999
aI9999
aI9999
aI9999
aI9999
aF0.300494521856308
aI9999
aI9999
aaI-1
aa(lp101
(lp102
I9999
aI9999
aI9999
aI9999
aI9999
aI9999
aI9999
aI9999
aaI-1
aa(lp103
(lp104
I9999
aI9999
aF0.3004944920539856
aI9999
aI9999
aF0.3004944920539856
aF0.2609018087387085
aI9999
aaI-1
aa(lp105
(lp106
F5.822617053985596
aF4.526744365692139
aF4.417656421661377
aF5.346739768981934
aI9999
aI9999
aI9999
aI9999
aaI-1
aa(lp107
(lp108
F4.294423580169678
aF5.086495399475098
aF0.30049458146095276
aI9999
aI9999
aF0.30049461126327515
aI9999
aI9999
aaI-1
aa(lp109
(lp110
F4.943552017211914
aF5.850433349609375
aI9999
aI9999
aI9999
aF0.3004944920539856
aI9999
aI9999
aaI-1
aa(lp111
(lp112
F5.6575541496276855
aI9999
aF0.30049455165863037
aF0.24103721976280212
aI9999
aI9999
aI9999
aI9999
aaI-1
aa(lp113
(lp114
F4.235775947570801
aF0.2609018385410309
aF0.300494521856308
aI9999
aI9999
aI9999
aI9999
aI9999
aaI-1
aa(lp115
(lp116
F2.4807896614074707
aF2.937432050704956
aF0.300494521856308
aI9999
aI9999
aI9999
aI9999
aI9999
aaI-1
aa(lp117
(lp118
F1.4798212051391602
aF1.7558857202529907
aF2.8523969650268555
aI9999
aI9999
aF0.300494521856308
aI9999
aI9999
aaI-1
aa(lp119
(lp120
F2.5601911544799805
aF3.0374596118927
aF4.933215618133545
aI9999
aI9999
aF0.300494521856308
aF0.2609018385410309
aI9999
aaI-1
aa(lp121
(lp122
F4.069787979125977
aF4.840228080749512
aI9999
aI9999
aI9999
aF0.300494521856308
aI9999
aI9999
aaI-1
aa(lp123
(lp124
F4.9850029945373535
aF5.912044525146484
aI9999
aI9999
aI9999
aI9999
aI9999
aI9999
aaI-1
aa(lp125
(lp126
F5.098934173583984
aI9999
aI9999
aI9999
aI9999
aI9999
aI9999
aI9999
aaI-1
aa(lp127
(lp128
F5.119667053222656
aI9999
aI9999
aI9999
aI9999
aI9999
aI9999
aI9999
aaI-1
aa(lp129
(lp130
F5.724830627441406
aI9999
aI9999
aI9999
aI9999
aI9999
aI9999
aI9999
aaI-1
aa(lp131
(lp132
I9999
aI9999
aI9999
aI9999
aI9999
aI9999
aI9999
aI9999
aaI-1
aa(lp133
(lp134
I9999
aI9999
aF0.30049455165863037
aI9999
aF0.24103723466396332
aF0.30049455165863037
aF0.2609018385410309
aI9999
aaI-1
aa(lp135
(lp136
I9999
aI9999
aI9999
aI9999
aI9999
aI9999
aI9999
aI9999
aaI-1
aa(lp137
(lp138
I9999
aF0.2609010934829712
aF0.3004941940307617
aI9999
aF0.24103693664073944
aF0.3004941940307617
aF0.2609025835990906
aI9999
aaI-1
aa(lp139
(lp140
I9999
aI9999
aI9999
aI9999
aF5.131850242614746
aF4.758847236633301
aF5.439806938171387
aI9999
aaI-1
aa(lp141
(lp142
I9999
aI9999
aI9999
aF4.152699947357178
aF2.8980438709259033
aF2.6244089603424072
aF2.9272124767303467
aF4.262380123138428
aaI1
aa(lp143
(lp144
I9999
aI9999
aF3.519326686859131
aF1.268957495689392
aF0.8802626729011536
aF0.7941415905952454
aF0.8824082016944885
aF1.2770240306854248
aaI-1
aa(lp145
(lp146
F1.0830715894699097
aF1.055509328842163
aF1.2754114866256714
aF2.1478891372680664
aI9999
aF0.30049461126327515
aF0.26090243458747864
aF0.2350006103515625
aaI-1
aa(lp147
(lp148
F2.713878870010376
aF3.2501120567321777
aF5.3761210441589355
aI9999
aI9999
aF0.300494521856308
aI9999
aI9999
aaI-1
aa(lp149
(lp150
F4.6028056144714355
aF5.437294006347656
aI9999
aI9999
aI9999
aF0.300494521856308
aI9999
aI9999
aaI-1
aa(lp151
(lp152
F5.787838459014893
aI9999
aF0.30049455165863037
aI9999
aI9999
aI9999
aI9999
aI9999
aaI-1
aa(lp153
(lp154
F5.332021713256836
aI9999
aI9999
aI9999
aI9999
aI9999
aI9999
aI9999
aaI-1
aa(lp155
(lp156
F5.4387006759643555
aI9999
aI9999
aI9999
aI9999
aI9999
aI9999
aI9999
aaI-1
aa(lp157
(lp158
F5.034433841705322
aF5.89940881729126
aF0.300494521856308
aI9999
aI9999
aI9999
aI9999
aI9999
aaI-1
aa(lp159
(lp160
F3.357503890991211
aF3.9452505111694336
aF0.300494521856308
aI9999
aI9999
aI9999
aI9999
aI9999
aaI1
aa(lp161
(lp162
F2.7364020347595215
aF5.4303998947143555
aI9999
aI9999
aI9999
aI9999
aI9999
aI9999
aaI-1
aa(lp163
(lp164
I9999
aF0.26090288162231445
aF0.3004939556121826
aI9999
aI9999
aI9999
aI9999
aI9999
aaI-1
aa(lp165
(lp166
I9999
aI9999
aI9999
aI9999
aI9999
aI9999
aF3.5172669887542725
aF2.3078536987304688
aaI-1
aa(lp167
(lp168
I9999
aI9999
aI9999
aI9999
aI9999
aF5.4684319496154785
aF2.865494966506958
aF2.241946220397949
aaI-1
aa(lp169
(lp170
I9999
aI9999
aI9999
aI9999
aI9999
aI9999
aF3.2178921699523926
aF2.4903697967529297
aaI1
aa(lp171
(lp172
I9999
aI9999
aI9999
aI9999
aI9999
aI9999
aI9999
aF5.852611064910889
aaI1
aa(lp173
(lp174
I9999
aI9999
aF0.3004944622516632
aF0.24103716015815735
aF0.24103716015815735
aI9999
aI9999
aI9999
aaI1
aa(lp175
(lp176
I9999
aI9999
aI9999
aF0.24103723466396332
aF0.24103723466396332
aF0.30049455165863037
aF0.2609018087387085
aI9999
aaI1
aa(lp177
(lp178
I9999
aF4.433688640594482
aI9999
aI9999
aI9999
aF0.3004942536354065
aF0.2609018087387085
aI9999
aaI1
aa(lp179
(lp180
I9999
aI9999
aI9999
aF5.352380752563477
aI9999
aI9999
aI9999
aI9999
aaI-1
aa(lp181
(lp182
F0.23500005900859833
aF0.2609018087387085
aI9999
aI9999
aI9999
aI9999
aI9999
aI9999
aaI-1
aa(lp183
(lp184
I9999
aI9999
aI9999
aI9999
aI9999
aI9999
aI9999
aI9999
aaI-1
aa(lp185
(lp186
I9999
aI9999
aI9999
aI9999
aI9999
aI9999
aI9999
aI9999
aaI-1
aa(lp187
(lp188
I9999
aI9999
aI9999
aI9999
aI9999
aI9999
aI9999
aI9999
aaI-1
aa(lp189
(lp190
I9999
aI9999
aI9999
aI9999
aI9999
aI9999
aI9999
aI9999
aaI-1
aa(lp191
(lp192
I9999
aI9999
aI9999
aI9999
aI9999
aI9999
aI9999
aI9999
aaI-1
aa(lp193
(lp194
I9999
aI9999
aI9999
aI9999
aI9999
aI9999
aI9999
aI9999
aaI-1
aa(lp195
(lp196
I9999
aI9999
aI9999
aI9999
aI9999
aI9999
aI9999
aI9999
aaI-1
aa(lp197
(lp198
I9999
aI9999
aI9999
aI9999
aI9999
aI9999
aI9999
aI9999
aaI-1
aa(lp199
(lp200
I9999
aI9999
aI9999
aI9999
aI9999
aI9999
aI9999
aI9999
aaI-1
aa.